
/lib/x86_64-linux-gnu/libpthread.so.0:     file format elf64-x86-64


Disassembly of section .init:

0000000000005678 <_init>:
    5678:	48 83 ec 08          	sub    $0x8,%rsp
    567c:	e8 ff 07 00 00       	callq  5e80 <__pthread_initialize_minimal>
    5681:	48 83 c4 08          	add    $0x8,%rsp
    5685:	c3                   	retq   

Disassembly of section .plt:

0000000000005690 <.plt>:
    5690:	ff 35 72 49 21 00    	pushq  0x214972(%rip)        # 21a008 <_GLOBAL_OFFSET_TABLE_+0x8>
    5696:	ff 25 74 49 21 00    	jmpq   *0x214974(%rip)        # 21a010 <_GLOBAL_OFFSET_TABLE_+0x10>
    569c:	0f 1f 40 00          	nopl   0x0(%rax)

00000000000056a0 <__tsearch@plt>:
    56a0:	ff 25 72 49 21 00    	jmpq   *0x214972(%rip)        # 21a018 <__tsearch@GLIBC_PRIVATE>
    56a6:	68 00 00 00 00       	pushq  $0x0
    56ab:	e9 e0 ff ff ff       	jmpq   5690 <.plt>

00000000000056b0 <__clone@plt>:
    56b0:	ff 25 6a 49 21 00    	jmpq   *0x21496a(%rip)        # 21a020 <__clone@GLIBC_2.2.5>
    56b6:	68 01 00 00 00       	pushq  $0x1
    56bb:	e9 d0 ff ff ff       	jmpq   5690 <.plt>

00000000000056c0 <free@plt>:
    56c0:	ff 25 62 49 21 00    	jmpq   *0x214962(%rip)        # 21a028 <free@GLIBC_2.2.5>
    56c6:	68 02 00 00 00       	pushq  $0x2
    56cb:	e9 c0 ff ff ff       	jmpq   5690 <.plt>

00000000000056d0 <__getrlimit@plt>:
    56d0:	ff 25 5a 49 21 00    	jmpq   *0x21495a(%rip)        # 21a030 <__getrlimit@GLIBC_PRIVATE>
    56d6:	68 03 00 00 00       	pushq  $0x3
    56db:	e9 b0 ff ff ff       	jmpq   5690 <.plt>

00000000000056e0 <abort@plt>:
    56e0:	ff 25 52 49 21 00    	jmpq   *0x214952(%rip)        # 21a038 <abort@GLIBC_2.2.5>
    56e6:	68 04 00 00 00       	pushq  $0x4
    56eb:	e9 a0 ff ff ff       	jmpq   5690 <.plt>

00000000000056f0 <unlink@plt>:
    56f0:	ff 25 4a 49 21 00    	jmpq   *0x21494a(%rip)        # 21a040 <unlink@GLIBC_2.2.5>
    56f6:	68 05 00 00 00       	pushq  $0x5
    56fb:	e9 90 ff ff ff       	jmpq   5690 <.plt>

0000000000005700 <_exit@plt>:
    5700:	ff 25 42 49 21 00    	jmpq   *0x214942(%rip)        # 21a048 <_exit@GLIBC_2.2.5>
    5706:	68 06 00 00 00       	pushq  $0x6
    570b:	e9 80 ff ff ff       	jmpq   5690 <.plt>

0000000000005710 <__sched_getscheduler@plt>:
    5710:	ff 25 3a 49 21 00    	jmpq   *0x21493a(%rip)        # 21a050 <__sched_getscheduler@GLIBC_2.2.5>
    5716:	68 07 00 00 00       	pushq  $0x7
    571b:	e9 70 ff ff ff       	jmpq   5690 <.plt>

0000000000005720 <__libc_dlclose@plt>:
    5720:	ff 25 32 49 21 00    	jmpq   *0x214932(%rip)        # 21a058 <__libc_dlclose@GLIBC_PRIVATE>
    5726:	68 08 00 00 00       	pushq  $0x8
    572b:	e9 60 ff ff ff       	jmpq   5690 <.plt>

0000000000005730 <__libc_fatal@plt>:
    5730:	ff 25 2a 49 21 00    	jmpq   *0x21492a(%rip)        # 21a060 <__libc_fatal@GLIBC_PRIVATE>
    5736:	68 09 00 00 00       	pushq  $0x9
    573b:	e9 50 ff ff ff       	jmpq   5690 <.plt>

0000000000005740 <__statfs@plt>:
    5740:	ff 25 22 49 21 00    	jmpq   *0x214922(%rip)        # 21a068 <__statfs@GLIBC_2.2.5>
    5746:	68 0a 00 00 00       	pushq  $0xa
    574b:	e9 40 ff ff ff       	jmpq   5690 <.plt>

0000000000005750 <__sched_get_priority_max@plt>:
    5750:	ff 25 1a 49 21 00    	jmpq   *0x21491a(%rip)        # 21a070 <__sched_get_priority_max@GLIBC_2.2.5>
    5756:	68 0b 00 00 00       	pushq  $0xb
    575b:	e9 30 ff ff ff       	jmpq   5690 <.plt>

0000000000005760 <__mempcpy@plt>:
    5760:	ff 25 12 49 21 00    	jmpq   *0x214912(%rip)        # 21a078 <__mempcpy@GLIBC_2.2.5>
    5766:	68 0c 00 00 00       	pushq  $0xc
    576b:	e9 20 ff ff ff       	jmpq   5690 <.plt>

0000000000005770 <getpid@plt>:
    5770:	ff 25 0a 49 21 00    	jmpq   *0x21490a(%rip)        # 21a080 <getpid@GLIBC_2.2.5>
    5776:	68 0d 00 00 00       	pushq  $0xd
    577b:	e9 10 ff ff ff       	jmpq   5690 <.plt>

0000000000005780 <__sigtimedwait@plt>:
    5780:	ff 25 02 49 21 00    	jmpq   *0x214902(%rip)        # 21a088 <__sigtimedwait@GLIBC_PRIVATE>
    5786:	68 0e 00 00 00       	pushq  $0xe
    578b:	e9 00 ff ff ff       	jmpq   5690 <.plt>

0000000000005790 <__mmap@plt>:
    5790:	ff 25 fa 48 21 00    	jmpq   *0x2148fa(%rip)        # 21a090 <__mmap@GLIBC_PRIVATE>
    5796:	68 0f 00 00 00       	pushq  $0xf
    579b:	e9 f0 fe ff ff       	jmpq   5690 <.plt>

00000000000057a0 <fclose@plt>:
    57a0:	ff 25 f2 48 21 00    	jmpq   *0x2148f2(%rip)        # 21a098 <fclose@GLIBC_2.2.5>
    57a6:	68 10 00 00 00       	pushq  $0x10
    57ab:	e9 e0 fe ff ff       	jmpq   5690 <.plt>

00000000000057b0 <strlen@plt>:
    57b0:	ff 25 ea 48 21 00    	jmpq   *0x2148ea(%rip)        # 21a0a0 <strlen@GLIBC_2.2.5>
    57b6:	68 11 00 00 00       	pushq  $0x11
    57bb:	e9 d0 fe ff ff       	jmpq   5690 <.plt>

00000000000057c0 <__getpid@plt>:
    57c0:	ff 25 e2 48 21 00    	jmpq   *0x2148e2(%rip)        # 21a0a8 <__getpid@GLIBC_2.2.5>
    57c6:	68 12 00 00 00       	pushq  $0x12
    57cb:	e9 c0 fe ff ff       	jmpq   5690 <.plt>

00000000000057d0 <__stack_chk_fail@plt>:
    57d0:	ff 25 da 48 21 00    	jmpq   *0x2148da(%rip)        # 21a0b0 <__stack_chk_fail@GLIBC_2.4>
    57d6:	68 13 00 00 00       	pushq  $0x13
    57db:	e9 b0 fe ff ff       	jmpq   5690 <.plt>

00000000000057e0 <__libc_system@plt>:
    57e0:	ff 25 d2 48 21 00    	jmpq   *0x2148d2(%rip)        # 21a0b8 <__libc_system@GLIBC_PRIVATE>
    57e6:	68 14 00 00 00       	pushq  $0x14
    57eb:	e9 a0 fe ff ff       	jmpq   5690 <.plt>

00000000000057f0 <getuid@plt>:
    57f0:	ff 25 ca 48 21 00    	jmpq   *0x2148ca(%rip)        # 21a0c0 <getuid@GLIBC_2.2.5>
    57f6:	68 15 00 00 00       	pushq  $0x15
    57fb:	e9 90 fe ff ff       	jmpq   5690 <.plt>

0000000000005800 <mmap@plt>:
    5800:	ff 25 c2 48 21 00    	jmpq   *0x2148c2(%rip)        # 21a0c8 <mmap@GLIBC_2.2.5>
    5806:	68 16 00 00 00       	pushq  $0x16
    580b:	e9 80 fe ff ff       	jmpq   5690 <.plt>

0000000000005810 <strchr@plt>:
    5810:	ff 25 ba 48 21 00    	jmpq   *0x2148ba(%rip)        # 21a0d0 <strchr@GLIBC_2.2.5>
    5816:	68 17 00 00 00       	pushq  $0x17
    581b:	e9 70 fe ff ff       	jmpq   5690 <.plt>

0000000000005820 <__munmap@plt>:
    5820:	ff 25 b2 48 21 00    	jmpq   *0x2148b2(%rip)        # 21a0d8 <__munmap@GLIBC_PRIVATE>
    5826:	68 18 00 00 00       	pushq  $0x18
    582b:	e9 60 fe ff ff       	jmpq   5690 <.plt>

0000000000005830 <__gettimeofday@plt>:
    5830:	ff 25 aa 48 21 00    	jmpq   *0x2148aa(%rip)        # 21a0e0 <__gettimeofday@GLIBC_2.2.5>
    5836:	68 19 00 00 00       	pushq  $0x19
    583b:	e9 50 fe ff ff       	jmpq   5690 <.plt>

0000000000005840 <__assert_fail@plt>:
    5840:	ff 25 a2 48 21 00    	jmpq   *0x2148a2(%rip)        # 21a0e8 <__assert_fail@GLIBC_2.2.5>
    5846:	68 1a 00 00 00       	pushq  $0x1a
    584b:	e9 40 fe ff ff       	jmpq   5690 <.plt>

0000000000005850 <memset@plt>:
    5850:	ff 25 9a 48 21 00    	jmpq   *0x21489a(%rip)        # 21a0f0 <memset@GLIBC_2.2.5>
    5856:	68 1b 00 00 00       	pushq  $0x1b
    585b:	e9 30 fe ff ff       	jmpq   5690 <.plt>

0000000000005860 <__libc_fork@plt>:
    5860:	ff 25 92 48 21 00    	jmpq   *0x214892(%rip)        # 21a0f8 <__libc_fork@GLIBC_PRIVATE>
    5866:	68 1c 00 00 00       	pushq  $0x1c
    586b:	e9 20 fe ff ff       	jmpq   5690 <.plt>

0000000000005870 <_IO_enable_locks@plt>:
    5870:	ff 25 8a 48 21 00    	jmpq   *0x21488a(%rip)        # 21a100 <_IO_enable_locks@GLIBC_PRIVATE>
    5876:	68 1d 00 00 00       	pushq  $0x1d
    587b:	e9 10 fe ff ff       	jmpq   5690 <.plt>

0000000000005880 <__register_atfork@plt>:
    5880:	ff 25 82 48 21 00    	jmpq   *0x214882(%rip)        # 21a108 <__register_atfork@GLIBC_2.3.2>
    5886:	68 1e 00 00 00       	pushq  $0x1e
    588b:	e9 00 fe ff ff       	jmpq   5690 <.plt>

0000000000005890 <sched_yield@plt>:
    5890:	ff 25 7a 48 21 00    	jmpq   *0x21487a(%rip)        # 21a110 <sched_yield@GLIBC_2.2.5>
    5896:	68 1f 00 00 00       	pushq  $0x1f
    589b:	e9 f0 fd ff ff       	jmpq   5690 <.plt>

00000000000058a0 <_dl_deallocate_tls@plt>:
    58a0:	ff 25 72 48 21 00    	jmpq   *0x214872(%rip)        # 21a118 <_dl_deallocate_tls@GLIBC_PRIVATE>
    58a6:	68 20 00 00 00       	pushq  $0x20
    58ab:	e9 e0 fd ff ff       	jmpq   5690 <.plt>

00000000000058b0 <__call_tls_dtors@plt>:
    58b0:	ff 25 6a 48 21 00    	jmpq   *0x21486a(%rip)        # 21a120 <__call_tls_dtors@GLIBC_PRIVATE>
    58b6:	68 21 00 00 00       	pushq  $0x21
    58bb:	e9 d0 fd ff ff       	jmpq   5690 <.plt>

00000000000058c0 <__sched_getparam@plt>:
    58c0:	ff 25 62 48 21 00    	jmpq   *0x214862(%rip)        # 21a128 <__sched_getparam@GLIBC_2.2.5>
    58c6:	68 22 00 00 00       	pushq  $0x22
    58cb:	e9 c0 fd ff ff       	jmpq   5690 <.plt>

00000000000058d0 <_setjmp@plt>:
    58d0:	ff 25 5a 48 21 00    	jmpq   *0x21485a(%rip)        # 21a130 <_setjmp@GLIBC_2.2.5>
    58d6:	68 23 00 00 00       	pushq  $0x23
    58db:	e9 b0 fd ff ff       	jmpq   5690 <.plt>

00000000000058e0 <calloc@plt>:
    58e0:	ff 25 52 48 21 00    	jmpq   *0x214852(%rip)        # 21a138 <calloc@GLIBC_2.2.5>
    58e6:	68 24 00 00 00       	pushq  $0x24
    58eb:	e9 a0 fd ff ff       	jmpq   5690 <.plt>

00000000000058f0 <__getdelim@plt>:
    58f0:	ff 25 4a 48 21 00    	jmpq   *0x21484a(%rip)        # 21a140 <__getdelim@GLIBC_2.2.5>
    58f6:	68 25 00 00 00       	pushq  $0x25
    58fb:	e9 90 fd ff ff       	jmpq   5690 <.plt>

0000000000005900 <__getmntent_r@plt>:
    5900:	ff 25 42 48 21 00    	jmpq   *0x214842(%rip)        # 21a148 <__getmntent_r@GLIBC_2.2.5>
    5906:	68 26 00 00 00       	pushq  $0x26
    590b:	e9 80 fd ff ff       	jmpq   5690 <.plt>

0000000000005910 <__fxstat64@plt>:
    5910:	ff 25 3a 48 21 00    	jmpq   *0x21483a(%rip)        # 21a150 <__fxstat64@GLIBC_2.2.5>
    5916:	68 27 00 00 00       	pushq  $0x27
    591b:	e9 70 fd ff ff       	jmpq   5690 <.plt>

0000000000005920 <strcmp@plt>:
    5920:	ff 25 32 48 21 00    	jmpq   *0x214832(%rip)        # 21a158 <strcmp@GLIBC_2.2.5>
    5926:	68 28 00 00 00       	pushq  $0x28
    592b:	e9 60 fd ff ff       	jmpq   5690 <.plt>

0000000000005930 <__libc_thread_freeres@plt>:
    5930:	ff 25 2a 48 21 00    	jmpq   *0x21482a(%rip)        # 21a160 <__libc_thread_freeres@GLIBC_PRIVATE>
    5936:	68 29 00 00 00       	pushq  $0x29
    593b:	e9 50 fd ff ff       	jmpq   5690 <.plt>

0000000000005940 <__endmntent@plt>:
    5940:	ff 25 22 48 21 00    	jmpq   *0x214822(%rip)        # 21a168 <__endmntent@GLIBC_2.2.5>
    5946:	68 2a 00 00 00       	pushq  $0x2a
    594b:	e9 40 fd ff ff       	jmpq   5690 <.plt>

0000000000005950 <memcpy@plt>:
    5950:	ff 25 1a 48 21 00    	jmpq   *0x21481a(%rip)        # 21a170 <memcpy@GLIBC_2.14>
    5956:	68 2b 00 00 00       	pushq  $0x2b
    595b:	e9 30 fd ff ff       	jmpq   5690 <.plt>

0000000000005960 <__mprotect@plt>:
    5960:	ff 25 12 48 21 00    	jmpq   *0x214812(%rip)        # 21a178 <__mprotect@GLIBC_PRIVATE>
    5966:	68 2c 00 00 00       	pushq  $0x2c
    596b:	e9 20 fd ff ff       	jmpq   5690 <.plt>

0000000000005970 <__clock_gettime@plt>:
    5970:	ff 25 0a 48 21 00    	jmpq   *0x21480a(%rip)        # 21a180 <__clock_gettime@GLIBC_PRIVATE>
    5976:	68 2d 00 00 00       	pushq  $0x2d
    597b:	e9 10 fd ff ff       	jmpq   5690 <.plt>

0000000000005980 <prctl@plt>:
    5980:	ff 25 02 48 21 00    	jmpq   *0x214802(%rip)        # 21a188 <prctl@GLIBC_2.2.5>
    5986:	68 2e 00 00 00       	pushq  $0x2e
    598b:	e9 00 fd ff ff       	jmpq   5690 <.plt>

0000000000005990 <__libc_current_sigrtmax_private@plt>:
    5990:	ff 25 fa 47 21 00    	jmpq   *0x2147fa(%rip)        # 21a190 <__libc_current_sigrtmax_private@GLIBC_PRIVATE>
    5996:	68 2f 00 00 00       	pushq  $0x2f
    599b:	e9 f0 fc ff ff       	jmpq   5690 <.plt>

00000000000059a0 <__tdelete@plt>:
    59a0:	ff 25 f2 47 21 00    	jmpq   *0x2147f2(%rip)        # 21a198 <__tdelete@GLIBC_PRIVATE>
    59a6:	68 30 00 00 00       	pushq  $0x30
    59ab:	e9 e0 fc ff ff       	jmpq   5690 <.plt>

00000000000059b0 <__sched_setscheduler@plt>:
    59b0:	ff 25 ea 47 21 00    	jmpq   *0x2147ea(%rip)        # 21a1a0 <__sched_setscheduler@GLIBC_2.2.5>
    59b6:	68 31 00 00 00       	pushq  $0x31
    59bb:	e9 d0 fc ff ff       	jmpq   5690 <.plt>

00000000000059c0 <__libc_dlopen_mode@plt>:
    59c0:	ff 25 e2 47 21 00    	jmpq   *0x2147e2(%rip)        # 21a1a8 <__libc_dlopen_mode@GLIBC_PRIVATE>
    59c6:	68 32 00 00 00       	pushq  $0x32
    59cb:	e9 c0 fc ff ff       	jmpq   5690 <.plt>

00000000000059d0 <__getpagesize@plt>:
    59d0:	ff 25 da 47 21 00    	jmpq   *0x2147da(%rip)        # 21a1b0 <__getpagesize@GLIBC_2.2.5>
    59d6:	68 33 00 00 00       	pushq  $0x33
    59db:	e9 b0 fc ff ff       	jmpq   5690 <.plt>

00000000000059e0 <malloc@plt>:
    59e0:	ff 25 d2 47 21 00    	jmpq   *0x2147d2(%rip)        # 21a1b8 <malloc@GLIBC_2.2.5>
    59e6:	68 34 00 00 00       	pushq  $0x34
    59eb:	e9 a0 fc ff ff       	jmpq   5690 <.plt>

00000000000059f0 <_dl_make_stack_executable@plt>:
    59f0:	ff 25 ca 47 21 00    	jmpq   *0x2147ca(%rip)        # 21a1c0 <_dl_make_stack_executable@GLIBC_PRIVATE>
    59f6:	68 35 00 00 00       	pushq  $0x35
    59fb:	e9 90 fc ff ff       	jmpq   5690 <.plt>

0000000000005a00 <__libc_pthread_init@plt>:
    5a00:	ff 25 c2 47 21 00    	jmpq   *0x2147c2(%rip)        # 21a1c8 <__libc_pthread_init@GLIBC_PRIVATE>
    5a06:	68 36 00 00 00       	pushq  $0x36
    5a0b:	e9 80 fc ff ff       	jmpq   5690 <.plt>

0000000000005a10 <__ctype_init@plt>:
    5a10:	ff 25 ba 47 21 00    	jmpq   *0x2147ba(%rip)        # 21a1d0 <__ctype_init@GLIBC_PRIVATE>
    5a16:	68 37 00 00 00       	pushq  $0x37
    5a1b:	e9 70 fc ff ff       	jmpq   5690 <.plt>

0000000000005a20 <sscanf@plt>:
    5a20:	ff 25 b2 47 21 00    	jmpq   *0x2147b2(%rip)        # 21a1d8 <sscanf@GLIBC_2.2.5>
    5a26:	68 38 00 00 00       	pushq  $0x38
    5a2b:	e9 60 fc ff ff       	jmpq   5690 <.plt>

0000000000005a30 <realloc@plt>:
    5a30:	ff 25 aa 47 21 00    	jmpq   *0x2147aa(%rip)        # 21a1e0 <realloc@GLIBC_2.2.5>
    5a36:	68 39 00 00 00       	pushq  $0x39
    5a3b:	e9 50 fc ff ff       	jmpq   5690 <.plt>

0000000000005a40 <__libc_dlsym@plt>:
    5a40:	ff 25 a2 47 21 00    	jmpq   *0x2147a2(%rip)        # 21a1e8 <__libc_dlsym@GLIBC_PRIVATE>
    5a46:	68 3a 00 00 00       	pushq  $0x3a
    5a4b:	e9 40 fc ff ff       	jmpq   5690 <.plt>

0000000000005a50 <__tfind@plt>:
    5a50:	ff 25 9a 47 21 00    	jmpq   *0x21479a(%rip)        # 21a1f0 <__tfind@GLIBC_PRIVATE>
    5a56:	68 3b 00 00 00       	pushq  $0x3b
    5a5b:	e9 30 fc ff ff       	jmpq   5690 <.plt>

0000000000005a60 <munmap@plt>:
    5a60:	ff 25 92 47 21 00    	jmpq   *0x214792(%rip)        # 21a1f8 <munmap@GLIBC_2.2.5>
    5a66:	68 3c 00 00 00       	pushq  $0x3c
    5a6b:	e9 20 fc ff ff       	jmpq   5690 <.plt>

0000000000005a70 <__libc_current_sigrtmin_private@plt>:
    5a70:	ff 25 8a 47 21 00    	jmpq   *0x21478a(%rip)        # 21a200 <__libc_current_sigrtmin_private@GLIBC_PRIVATE>
    5a76:	68 3d 00 00 00       	pushq  $0x3d
    5a7b:	e9 10 fc ff ff       	jmpq   5690 <.plt>

0000000000005a80 <__madvise@plt>:
    5a80:	ff 25 82 47 21 00    	jmpq   *0x214782(%rip)        # 21a208 <__madvise@GLIBC_PRIVATE>
    5a86:	68 3e 00 00 00       	pushq  $0x3e
    5a8b:	e9 00 fc ff ff       	jmpq   5690 <.plt>

0000000000005a90 <fopen@plt>:
    5a90:	ff 25 7a 47 21 00    	jmpq   *0x21477a(%rip)        # 21a210 <fopen@GLIBC_2.2.5>
    5a96:	68 3f 00 00 00       	pushq  $0x3f
    5a9b:	e9 f0 fb ff ff       	jmpq   5690 <.plt>

0000000000005aa0 <__mktemp@plt>:
    5aa0:	ff 25 72 47 21 00    	jmpq   *0x214772(%rip)        # 21a218 <__mktemp@GLIBC_PRIVATE>
    5aa6:	68 40 00 00 00       	pushq  $0x40
    5aab:	e9 e0 fb ff ff       	jmpq   5690 <.plt>

0000000000005ab0 <__twalk@plt>:
    5ab0:	ff 25 6a 47 21 00    	jmpq   *0x21476a(%rip)        # 21a220 <__twalk@GLIBC_PRIVATE>
    5ab6:	68 41 00 00 00       	pushq  $0x41
    5abb:	e9 d0 fb ff ff       	jmpq   5690 <.plt>

0000000000005ac0 <_dl_allocate_tls@plt>:
    5ac0:	ff 25 62 47 21 00    	jmpq   *0x214762(%rip)        # 21a228 <_dl_allocate_tls@GLIBC_PRIVATE>
    5ac6:	68 42 00 00 00       	pushq  $0x42
    5acb:	e9 c0 fb ff ff       	jmpq   5690 <.plt>

0000000000005ad0 <__setmntent@plt>:
    5ad0:	ff 25 5a 47 21 00    	jmpq   *0x21475a(%rip)        # 21a230 <__setmntent@GLIBC_2.2.5>
    5ad6:	68 43 00 00 00       	pushq  $0x43
    5adb:	e9 b0 fb ff ff       	jmpq   5690 <.plt>

0000000000005ae0 <__tunable_get_val@plt>:
    5ae0:	ff 25 52 47 21 00    	jmpq   *0x214752(%rip)        # 21a238 <__tunable_get_val@GLIBC_PRIVATE>
    5ae6:	68 44 00 00 00       	pushq  $0x44
    5aeb:	e9 a0 fb ff ff       	jmpq   5690 <.plt>

0000000000005af0 <sched_setparam@plt>:
    5af0:	ff 25 4a 47 21 00    	jmpq   *0x21474a(%rip)        # 21a240 <sched_setparam@GLIBC_2.2.5>
    5af6:	68 45 00 00 00       	pushq  $0x45
    5afb:	e9 90 fb ff ff       	jmpq   5690 <.plt>

0000000000005b00 <_dl_get_tls_static_info@plt>:
    5b00:	ff 25 42 47 21 00    	jmpq   *0x214742(%rip)        # 21a248 <_dl_get_tls_static_info@GLIBC_PRIVATE>
    5b06:	68 46 00 00 00       	pushq  $0x46
    5b0b:	e9 80 fb ff ff       	jmpq   5690 <.plt>

0000000000005b10 <sprintf@plt>:
    5b10:	ff 25 3a 47 21 00    	jmpq   *0x21473a(%rip)        # 21a250 <sprintf@GLIBC_2.2.5>
    5b16:	68 47 00 00 00       	pushq  $0x47
    5b1b:	e9 70 fb ff ff       	jmpq   5690 <.plt>

0000000000005b20 <link@plt>:
    5b20:	ff 25 32 47 21 00    	jmpq   *0x214732(%rip)        # 21a258 <link@GLIBC_2.2.5>
    5b26:	68 48 00 00 00       	pushq  $0x48
    5b2b:	e9 60 fb ff ff       	jmpq   5690 <.plt>

0000000000005b30 <exit@plt>:
    5b30:	ff 25 2a 47 21 00    	jmpq   *0x21472a(%rip)        # 21a260 <exit@GLIBC_2.2.5>
    5b36:	68 49 00 00 00       	pushq  $0x49
    5b3b:	e9 50 fb ff ff       	jmpq   5690 <.plt>

0000000000005b40 <getrlimit@plt>:
    5b40:	ff 25 22 47 21 00    	jmpq   *0x214722(%rip)        # 21a268 <getrlimit@GLIBC_2.2.5>
    5b46:	68 4a 00 00 00       	pushq  $0x4a
    5b4b:	e9 40 fb ff ff       	jmpq   5690 <.plt>

0000000000005b50 <__libc_alloca_cutoff@plt>:
    5b50:	ff 25 1a 47 21 00    	jmpq   *0x21471a(%rip)        # 21a270 <__libc_alloca_cutoff@GLIBC_PRIVATE>
    5b56:	68 4b 00 00 00       	pushq  $0x4b
    5b5b:	e9 30 fb ff ff       	jmpq   5690 <.plt>

0000000000005b60 <_dl_allocate_tls_init@plt>:
    5b60:	ff 25 12 47 21 00    	jmpq   *0x214712(%rip)        # 21a278 <_dl_allocate_tls_init@GLIBC_PRIVATE>
    5b66:	68 4c 00 00 00       	pushq  $0x4c
    5b6b:	e9 20 fb ff ff       	jmpq   5690 <.plt>

0000000000005b70 <__libc_allocate_rtsig_private@plt>:
    5b70:	ff 25 0a 47 21 00    	jmpq   *0x21470a(%rip)        # 21a280 <__libc_allocate_rtsig_private@GLIBC_PRIVATE>
    5b76:	68 4d 00 00 00       	pushq  $0x4d
    5b7b:	e9 10 fb ff ff       	jmpq   5690 <.plt>

0000000000005b80 <__libc_longjmp@plt>:
    5b80:	ff 25 02 47 21 00    	jmpq   *0x214702(%rip)        # 21a288 <__libc_longjmp@GLIBC_PRIVATE>
    5b86:	68 4e 00 00 00       	pushq  $0x4e
    5b8b:	e9 00 fb ff ff       	jmpq   5690 <.plt>

0000000000005b90 <__sched_get_priority_min@plt>:
    5b90:	ff 25 fa 46 21 00    	jmpq   *0x2146fa(%rip)        # 21a290 <__sched_get_priority_min@GLIBC_2.2.5>
    5b96:	68 4f 00 00 00       	pushq  $0x4f
    5b9b:	e9 f0 fa ff ff       	jmpq   5690 <.plt>

Disassembly of section .plt.got:

0000000000005ba0 <__cxa_finalize@plt>:
    5ba0:	ff 25 3a 44 21 00    	jmpq   *0x21443a(%rip)        # 219fe0 <__cxa_finalize@GLIBC_2.2.5>
    5ba6:	66 90                	xchg   %ax,%ax

Disassembly of section .text:

0000000000005bb0 <deregister_tm_clones>:
    5bb0:	48 8d 3d 39 47 21 00 	lea    0x214739(%rip),%rdi        # 21a2f0 <__TMC_END__>
    5bb7:	55                   	push   %rbp
    5bb8:	48 8d 05 31 47 21 00 	lea    0x214731(%rip),%rax        # 21a2f0 <__TMC_END__>
    5bbf:	48 39 f8             	cmp    %rdi,%rax
    5bc2:	48 89 e5             	mov    %rsp,%rbp
    5bc5:	74 19                	je     5be0 <deregister_tm_clones+0x30>
    5bc7:	48 8b 05 ca 43 21 00 	mov    0x2143ca(%rip),%rax        # 219f98 <_ITM_deregisterTMCloneTable>
    5bce:	48 85 c0             	test   %rax,%rax
    5bd1:	74 0d                	je     5be0 <deregister_tm_clones+0x30>
    5bd3:	5d                   	pop    %rbp
    5bd4:	ff e0                	jmpq   *%rax
    5bd6:	66 2e 0f 1f 84 00 00 	nopw   %cs:0x0(%rax,%rax,1)
    5bdd:	00 00 00 
    5be0:	5d                   	pop    %rbp
    5be1:	c3                   	retq   
    5be2:	0f 1f 40 00          	nopl   0x0(%rax)
    5be6:	66 2e 0f 1f 84 00 00 	nopw   %cs:0x0(%rax,%rax,1)
    5bed:	00 00 00 

0000000000005bf0 <register_tm_clones>:
    5bf0:	48 8d 3d f9 46 21 00 	lea    0x2146f9(%rip),%rdi        # 21a2f0 <__TMC_END__>
    5bf7:	48 8d 35 f2 46 21 00 	lea    0x2146f2(%rip),%rsi        # 21a2f0 <__TMC_END__>
    5bfe:	55                   	push   %rbp
    5bff:	48 29 fe             	sub    %rdi,%rsi
    5c02:	48 89 e5             	mov    %rsp,%rbp
    5c05:	48 c1 fe 03          	sar    $0x3,%rsi
    5c09:	48 89 f0             	mov    %rsi,%rax
    5c0c:	48 c1 e8 3f          	shr    $0x3f,%rax
    5c10:	48 01 c6             	add    %rax,%rsi
    5c13:	48 d1 fe             	sar    %rsi
    5c16:	74 18                	je     5c30 <register_tm_clones+0x40>
    5c18:	48 8b 05 b1 43 21 00 	mov    0x2143b1(%rip),%rax        # 219fd0 <_ITM_registerTMCloneTable>
    5c1f:	48 85 c0             	test   %rax,%rax
    5c22:	74 0c                	je     5c30 <register_tm_clones+0x40>
    5c24:	5d                   	pop    %rbp
    5c25:	ff e0                	jmpq   *%rax
    5c27:	66 0f 1f 84 00 00 00 	nopw   0x0(%rax,%rax,1)
    5c2e:	00 00 
    5c30:	5d                   	pop    %rbp
    5c31:	c3                   	retq   
    5c32:	0f 1f 40 00          	nopl   0x0(%rax)
    5c36:	66 2e 0f 1f 84 00 00 	nopw   %cs:0x0(%rax,%rax,1)
    5c3d:	00 00 00 

0000000000005c40 <__do_global_dtors_aux>:
    5c40:	80 3d b9 46 21 00 00 	cmpb   $0x0,0x2146b9(%rip)        # 21a300 <completed.7698>
    5c47:	75 2f                	jne    5c78 <__do_global_dtors_aux+0x38>
    5c49:	48 83 3d 8f 43 21 00 	cmpq   $0x0,0x21438f(%rip)        # 219fe0 <__cxa_finalize@GLIBC_2.2.5>
    5c50:	00 
    5c51:	55                   	push   %rbp
    5c52:	48 89 e5             	mov    %rsp,%rbp
    5c55:	74 0c                	je     5c63 <__do_global_dtors_aux+0x23>
    5c57:	48 8b 3d 42 46 21 00 	mov    0x214642(%rip),%rdi        # 21a2a0 <__dso_handle>
    5c5e:	e8 3d ff ff ff       	callq  5ba0 <__cxa_finalize@plt>
    5c63:	e8 48 ff ff ff       	callq  5bb0 <deregister_tm_clones>
    5c68:	c6 05 91 46 21 00 01 	movb   $0x1,0x214691(%rip)        # 21a300 <completed.7698>
    5c6f:	5d                   	pop    %rbp
    5c70:	c3                   	retq   
    5c71:	0f 1f 80 00 00 00 00 	nopl   0x0(%rax)
    5c78:	f3 c3                	repz retq 
    5c7a:	66 0f 1f 44 00 00    	nopw   0x0(%rax,%rax,1)

0000000000005c80 <frame_dummy>:
    5c80:	55                   	push   %rbp
    5c81:	48 89 e5             	mov    %rsp,%rbp
    5c84:	5d                   	pop    %rbp
    5c85:	e9 66 ff ff ff       	jmpq   5bf0 <register_tm_clones>
    5c8a:	66 0f 1f 44 00 00    	nopw   0x0(%rax,%rax,1)

0000000000005c90 <__nptl_set_robust>:
    5c90:	48 81 c7 e0 02 00 00 	add    $0x2e0,%rdi
    5c97:	be 18 00 00 00       	mov    $0x18,%esi
    5c9c:	b8 11 01 00 00       	mov    $0x111,%eax
    5ca1:	0f 05                	syscall 
    5ca3:	c3                   	retq   
    5ca4:	66 90                	xchg   %ax,%ax
    5ca6:	66 2e 0f 1f 84 00 00 	nopw   %cs:0x0(%rax,%rax,1)
    5cad:	00 00 00 

0000000000005cb0 <sigcancel_handler>:
    5cb0:	83 ff 20             	cmp    $0x20,%edi
    5cb3:	74 0b                	je     5cc0 <sigcancel_handler+0x10>
    5cb5:	f3 c3                	repz retq 
    5cb7:	66 0f 1f 84 00 00 00 	nopw   0x0(%rax,%rax,1)
    5cbe:	00 00 
    5cc0:	55                   	push   %rbp
    5cc1:	53                   	push   %rbx
    5cc2:	48 89 f3             	mov    %rsi,%rbx
    5cc5:	48 83 ec 08          	sub    $0x8,%rsp
    5cc9:	8b 6e 10             	mov    0x10(%rsi),%ebp
    5ccc:	e8 ef fa ff ff       	callq  57c0 <__getpid@plt>
    5cd1:	39 c5                	cmp    %eax,%ebp
    5cd3:	74 0b                	je     5ce0 <sigcancel_handler+0x30>
    5cd5:	48 83 c4 08          	add    $0x8,%rsp
    5cd9:	5b                   	pop    %rbx
    5cda:	5d                   	pop    %rbp
    5cdb:	c3                   	retq   
    5cdc:	0f 1f 40 00          	nopl   0x0(%rax)
    5ce0:	83 7b 08 fa          	cmpl   $0xfffffffa,0x8(%rbx)
    5ce4:	75 ef                	jne    5cd5 <sigcancel_handler+0x25>
    5ce6:	64 8b 14 25 08 03 00 	mov    %fs:0x308,%edx
    5ced:	00 
    5cee:	eb 17                	jmp    5d07 <sigcancel_handler+0x57>
    5cf0:	f6 c2 10             	test   $0x10,%dl
    5cf3:	75 e0                	jne    5cd5 <sigcancel_handler+0x25>
    5cf5:	89 d0                	mov    %edx,%eax
    5cf7:	f0 64 0f b1 0c 25 08 	lock cmpxchg %ecx,%fs:0x308
    5cfe:	03 00 00 
    5d01:	39 c2                	cmp    %eax,%edx
    5d03:	74 13                	je     5d18 <sigcancel_handler+0x68>
    5d05:	89 c2                	mov    %eax,%edx
    5d07:	89 d1                	mov    %edx,%ecx
    5d09:	83 c9 0c             	or     $0xc,%ecx
    5d0c:	39 ca                	cmp    %ecx,%edx
    5d0e:	75 e0                	jne    5cf0 <sigcancel_handler+0x40>
    5d10:	eb c3                	jmp    5cd5 <sigcancel_handler+0x25>
    5d12:	66 0f 1f 44 00 00    	nopw   0x0(%rax,%rax,1)
    5d18:	64 48 c7 04 25 30 06 	movq   $0xffffffffffffffff,%fs:0x630
    5d1f:	00 00 ff ff ff ff 
    5d25:	83 e2 02             	and    $0x2,%edx
    5d28:	74 ab                	je     5cd5 <sigcancel_handler+0x25>
    5d2a:	f0 64 83 0c 25 08 03 	lock orl $0x10,%fs:0x308
    5d31:	00 00 10 
    5d34:	64 48 8b 3c 25 00 03 	mov    %fs:0x300,%rdi
    5d3b:	00 00 
    5d3d:	e8 9e b1 00 00       	callq  10ee0 <__pthread_unwind>
    5d42:	0f 1f 40 00          	nopl   0x0(%rax)
    5d46:	66 2e 0f 1f 84 00 00 	nopw   %cs:0x0(%rax,%rax,1)
    5d4d:	00 00 00 

0000000000005d50 <sighandler_setxid>:
    5d50:	83 ff 21             	cmp    $0x21,%edi
    5d53:	74 0b                	je     5d60 <sighandler_setxid+0x10>
    5d55:	f3 c3                	repz retq 
    5d57:	66 0f 1f 84 00 00 00 	nopw   0x0(%rax,%rax,1)
    5d5e:	00 00 
    5d60:	55                   	push   %rbp
    5d61:	53                   	push   %rbx
    5d62:	48 89 f3             	mov    %rsi,%rbx
    5d65:	48 83 ec 08          	sub    $0x8,%rsp
    5d69:	8b 6e 10             	mov    0x10(%rsi),%ebp
    5d6c:	e8 4f fa ff ff       	callq  57c0 <__getpid@plt>
    5d71:	39 c5                	cmp    %eax,%ebp
    5d73:	74 0b                	je     5d80 <sighandler_setxid+0x30>
    5d75:	48 83 c4 08          	add    $0x8,%rsp
    5d79:	5b                   	pop    %rbx
    5d7a:	5d                   	pop    %rbp
    5d7b:	c3                   	retq   
    5d7c:	0f 1f 40 00          	nopl   0x0(%rax)
    5d80:	83 7b 08 fa          	cmpl   $0xfffffffa,0x8(%rbx)
    5d84:	75 ef                	jne    5d75 <sighandler_setxid+0x25>
    5d86:	48 8b 05 43 86 21 00 	mov    0x218643(%rip),%rax        # 21e3d0 <__xidcmd>
    5d8d:	48 8b 70 10          	mov    0x10(%rax),%rsi
    5d91:	48 8b 78 08          	mov    0x8(%rax),%rdi
    5d95:	48 8b 50 18          	mov    0x18(%rax),%rdx
    5d99:	8b 00                	mov    (%rax),%eax
    5d9b:	0f 05                	syscall 
    5d9d:	48 8b 3d 2c 86 21 00 	mov    0x21862c(%rip),%rdi        # 21e3d0 <__xidcmd>
    5da4:	89 c6                	mov    %eax,%esi
    5da6:	f7 de                	neg    %esi
    5da8:	3d 00 f0 ff ff       	cmp    $0xfffff000,%eax
    5dad:	b8 00 00 00 00       	mov    $0x0,%eax
    5db2:	0f 46 f0             	cmovbe %eax,%esi
    5db5:	e8 36 0e 00 00       	callq  6bf0 <__nptl_setxid_error>
    5dba:	64 48 8b 3c 25 10 00 	mov    %fs:0x10,%rdi
    5dc1:	00 00 
    5dc3:	0f 1f 44 00 00       	nopl   0x0(%rax,%rax,1)
    5dc8:	64 8b 14 25 08 03 00 	mov    %fs:0x308,%edx
    5dcf:	00 
    5dd0:	89 d1                	mov    %edx,%ecx
    5dd2:	89 d0                	mov    %edx,%eax
    5dd4:	83 e1 bf             	and    $0xffffffbf,%ecx
    5dd7:	f0 64 0f b1 0c 25 08 	lock cmpxchg %ecx,%fs:0x308
    5dde:	03 00 00 
    5de1:	39 c2                	cmp    %eax,%edx
    5de3:	75 e3                	jne    5dc8 <sighandler_setxid+0x78>
    5de5:	c7 87 1c 06 00 00 01 	movl   $0x1,0x61c(%rdi)
    5dec:	00 00 00 
    5def:	45 31 d2             	xor    %r10d,%r10d
    5df2:	48 81 c7 1c 06 00 00 	add    $0x61c,%rdi
    5df9:	ba 01 00 00 00       	mov    $0x1,%edx
    5dfe:	be 81 00 00 00       	mov    $0x81,%esi
    5e03:	b8 ca 00 00 00       	mov    $0xca,%eax
    5e08:	0f 05                	syscall 
    5e0a:	48 3d 00 f0 ff ff    	cmp    $0xfffffffffffff000,%rax
    5e10:	77 5e                	ja     5e70 <sighandler_setxid+0x120>
    5e12:	48 8b 05 b7 85 21 00 	mov    0x2185b7(%rip),%rax        # 21e3d0 <__xidcmd>
    5e19:	ba ff ff ff ff       	mov    $0xffffffff,%edx
    5e1e:	f0 0f c1 50 20       	lock xadd %edx,0x20(%rax)
    5e23:	83 fa 01             	cmp    $0x1,%edx
    5e26:	0f 85 49 ff ff ff    	jne    5d75 <sighandler_setxid+0x25>
    5e2c:	48 8b 05 9d 85 21 00 	mov    0x21859d(%rip),%rax        # 21e3d0 <__xidcmd>
    5e33:	45 31 d2             	xor    %r10d,%r10d
    5e36:	be 81 00 00 00       	mov    $0x81,%esi
    5e3b:	48 8d 78 20          	lea    0x20(%rax),%rdi
    5e3f:	b8 ca 00 00 00       	mov    $0xca,%eax
    5e44:	0f 05                	syscall 
    5e46:	48 3d 00 f0 ff ff    	cmp    $0xfffffffffffff000,%rax
    5e4c:	0f 86 23 ff ff ff    	jbe    5d75 <sighandler_setxid+0x25>
    5e52:	83 f8 ea             	cmp    $0xffffffea,%eax
    5e55:	0f 84 1a ff ff ff    	je     5d75 <sighandler_setxid+0x25>
    5e5b:	83 f8 f2             	cmp    $0xfffffff2,%eax
    5e5e:	0f 84 11 ff ff ff    	je     5d75 <sighandler_setxid+0x25>
    5e64:	48 8d 3d 35 e3 00 00 	lea    0xe335(%rip),%rdi        # 141a0 <_fini+0x1c>
    5e6b:	e8 c0 f8 ff ff       	callq  5730 <__libc_fatal@plt>
    5e70:	83 f8 ea             	cmp    $0xffffffea,%eax
    5e73:	74 9d                	je     5e12 <sighandler_setxid+0xc2>
    5e75:	83 f8 f2             	cmp    $0xfffffff2,%eax
    5e78:	74 98                	je     5e12 <sighandler_setxid+0xc2>
    5e7a:	eb e8                	jmp    5e64 <sighandler_setxid+0x114>
    5e7c:	0f 1f 40 00          	nopl   0x0(%rax)

0000000000005e80 <__pthread_initialize_minimal>:
    5e80:	41 54                	push   %r12
    5e82:	55                   	push   %rbp
    5e83:	53                   	push   %rbx
    5e84:	64 48 8b 14 25 10 00 	mov    %fs:0x10,%rdx
    5e8b:	00 00 
    5e8d:	48 81 ec c0 00 00 00 	sub    $0xc0,%rsp
    5e94:	48 8d ba d0 02 00 00 	lea    0x2d0(%rdx),%rdi
    5e9b:	64 48 8b 04 25 28 00 	mov    %fs:0x28,%rax
    5ea2:	00 00 
    5ea4:	48 89 84 24 b8 00 00 	mov    %rax,0xb8(%rsp)
    5eab:	00 
    5eac:	31 c0                	xor    %eax,%eax
    5eae:	b8 da 00 00 00       	mov    $0xda,%eax
    5eb3:	0f 05                	syscall 
    5eb5:	89 82 d0 02 00 00    	mov    %eax,0x2d0(%rdx)
    5ebb:	48 8d 82 10 03 00 00 	lea    0x310(%rdx),%rax
    5ec2:	64 48 89 04 25 10 05 	mov    %rax,%fs:0x510
    5ec9:	00 00 
    5ecb:	64 c6 04 25 12 06 00 	movb   $0x1,%fs:0x612
    5ed2:	00 01 
    5ed4:	48 8b 2d fd 40 21 00 	mov    0x2140fd(%rip),%rbp        # 219fd8 <_rtld_global@GLIBC_PRIVATE>
    5edb:	48 8b 85 68 09 00 00 	mov    0x968(%rbp),%rax
    5ee2:	64 48 89 04 25 20 06 	mov    %rax,%fs:0x620
    5ee9:	00 00 
    5eeb:	48 8d ba e0 02 00 00 	lea    0x2e0(%rdx),%rdi
    5ef2:	48 c7 82 e8 02 00 00 	movq   $0xffffffffffffffe0,0x2e8(%rdx)
    5ef9:	e0 ff ff ff 
    5efd:	be 18 00 00 00       	mov    $0x18,%esi
    5f02:	b8 11 01 00 00       	mov    $0x111,%eax
    5f07:	48 89 ba d8 02 00 00 	mov    %rdi,0x2d8(%rdx)
    5f0e:	48 89 ba e0 02 00 00 	mov    %rdi,0x2e0(%rdx)
    5f15:	0f 05                	syscall 
    5f17:	48 8b 05 92 40 21 00 	mov    0x214092(%rip),%rax        # 219fb0 <__libc_stack_end@GLIBC_2.2.5>
    5f1e:	48 8b 00             	mov    (%rax),%rax
    5f21:	64 48 89 04 25 98 06 	mov    %rax,%fs:0x698
    5f28:	00 00 
    5f2a:	48 8d 05 ff 83 21 00 	lea    0x2183ff(%rip),%rax        # 21e330 <__GI___stack_user>
    5f31:	48 8d 8a c0 02 00 00 	lea    0x2c0(%rdx),%rcx
    5f38:	48 89 05 f1 83 21 00 	mov    %rax,0x2183f1(%rip)        # 21e330 <__GI___stack_user>
    5f3f:	48 89 82 c0 02 00 00 	mov    %rax,0x2c0(%rdx)
    5f46:	48 89 82 c8 02 00 00 	mov    %rax,0x2c8(%rdx)
    5f4d:	48 89 0d e4 83 21 00 	mov    %rcx,0x2183e4(%rip)        # 21e338 <__GI___stack_user+0x8>
    5f54:	0f b6 05 a6 43 21 00 	movzbl 0x2143a6(%rip),%eax        # 21a301 <__nptl_initial_report_events>
    5f5b:	48 89 0d ce 83 21 00 	mov    %rcx,0x2183ce(%rip)        # 21e330 <__GI___stack_user>
    5f62:	64 88 04 25 11 06 00 	mov    %al,%fs:0x611
    5f69:	00 
    5f6a:	48 8d 5c 24 28       	lea    0x28(%rsp),%rbx
    5f6f:	31 c0                	xor    %eax,%eax
    5f71:	b9 10 00 00 00       	mov    $0x10,%ecx
    5f76:	4c 8d 64 24 20       	lea    0x20(%rsp),%r12
    5f7b:	31 d2                	xor    %edx,%edx
    5f7d:	c7 84 24 a8 00 00 00 	movl   $0x4,0xa8(%rsp)
    5f84:	04 00 00 00 
    5f88:	48 89 df             	mov    %rbx,%rdi
    5f8b:	f3 48 ab             	rep stos %rax,%es:(%rdi)
    5f8e:	48 8d 05 1b fd ff ff 	lea    -0x2e5(%rip),%rax        # 5cb0 <sigcancel_handler>
    5f95:	4c 89 e6             	mov    %r12,%rsi
    5f98:	bf 20 00 00 00       	mov    $0x20,%edi
    5f9d:	48 89 44 24 20       	mov    %rax,0x20(%rsp)
    5fa2:	e8 09 c9 00 00       	callq  128b0 <__libc_sigaction>
    5fa7:	48 8d 05 a2 fd ff ff 	lea    -0x25e(%rip),%rax        # 5d50 <sighandler_setxid>
    5fae:	31 d2                	xor    %edx,%edx
    5fb0:	4c 89 e6             	mov    %r12,%rsi
    5fb3:	bf 21 00 00 00       	mov    $0x21,%edi
    5fb8:	c7 84 24 a8 00 00 00 	movl   $0x10000004,0xa8(%rsp)
    5fbf:	04 00 00 10 
    5fc3:	48 89 44 24 20       	mov    %rax,0x20(%rsp)
    5fc8:	e8 e3 c8 00 00       	callq  128b0 <__libc_sigaction>
    5fcd:	48 b8 00 00 00 80 01 	movabs $0x180000000,%rax
    5fd4:	00 00 00 
    5fd7:	41 ba 08 00 00 00    	mov    $0x8,%r10d
    5fdd:	48 09 44 24 28       	or     %rax,0x28(%rsp)
    5fe2:	31 d2                	xor    %edx,%edx
    5fe4:	48 89 de             	mov    %rbx,%rsi
    5fe7:	bf 01 00 00 00       	mov    $0x1,%edi
    5fec:	b8 0e 00 00 00       	mov    $0xe,%eax
    5ff1:	0f 05                	syscall 
    5ff3:	48 8d 3d ee 83 21 00 	lea    0x2183ee(%rip),%rdi        # 21e3e8 <__static_tls_size>
    5ffa:	48 8d 74 24 08       	lea    0x8(%rsp),%rsi
    5fff:	e8 fc fa ff ff       	callq  5b00 <_dl_get_tls_static_info@plt>
    6004:	48 8b 4c 24 08       	mov    0x8(%rsp),%rcx
    6009:	48 83 f9 0f          	cmp    $0xf,%rcx
    600d:	48 8d 41 ff          	lea    -0x1(%rcx),%rax
    6011:	77 13                	ja     6026 <__pthread_initialize_minimal+0x1a6>
    6013:	48 c7 44 24 08 10 00 	movq   $0x10,0x8(%rsp)
    601a:	00 00 
    601c:	b8 0f 00 00 00       	mov    $0xf,%eax
    6021:	b9 10 00 00 00       	mov    $0x10,%ecx
    6026:	48 89 05 ab 83 21 00 	mov    %rax,0x2183ab(%rip)        # 21e3d8 <__static_tls_align_m1>
    602d:	48 8b 05 b4 83 21 00 	mov    0x2183b4(%rip),%rax        # 21e3e8 <__static_tls_size>
    6034:	31 d2                	xor    %edx,%edx
    6036:	48 8d 74 24 10       	lea    0x10(%rsp),%rsi
    603b:	bf 03 00 00 00       	mov    $0x3,%edi
    6040:	48 8d 44 01 ff       	lea    -0x1(%rcx,%rax,1),%rax
    6045:	48 f7 f1             	div    %rcx
    6048:	48 0f af c1          	imul   %rcx,%rax
    604c:	48 89 05 95 83 21 00 	mov    %rax,0x218395(%rip)        # 21e3e8 <__static_tls_size>
    6053:	e8 78 f6 ff ff       	callq  56d0 <__getrlimit@plt>
    6058:	85 c0                	test   %eax,%eax
    605a:	75 24                	jne    6080 <__pthread_initialize_minimal+0x200>
    605c:	48 8b 4c 24 10       	mov    0x10(%rsp),%rcx
    6061:	48 83 f9 ff          	cmp    $0xffffffffffffffff,%rcx
    6065:	74 19                	je     6080 <__pthread_initialize_minimal+0x200>
    6067:	48 81 f9 ff 3f 00 00 	cmp    $0x3fff,%rcx
    606e:	b8 00 40 00 00       	mov    $0x4000,%eax
    6073:	48 0f 46 c8          	cmovbe %rax,%rcx
    6077:	eb 0c                	jmp    6085 <__pthread_initialize_minimal+0x205>
    6079:	0f 1f 80 00 00 00 00 	nopl   0x0(%rax)
    6080:	b9 00 00 20 00       	mov    $0x200000,%ecx
    6085:	48 8b 05 2c 3f 21 00 	mov    0x213f2c(%rip),%rax        # 219fb8 <_rtld_global_ro@GLIBC_PRIVATE>
    608c:	be 01 00 00 00       	mov    $0x1,%esi
    6091:	48 8b 50 18          	mov    0x18(%rax),%rdx
    6095:	48 8b 05 4c 83 21 00 	mov    0x21834c(%rip),%rax        # 21e3e8 <__static_tls_size>
    609c:	48 01 d0             	add    %rdx,%rax
    609f:	48 05 00 08 00 00    	add    $0x800,%rax
    60a5:	48 39 c8             	cmp    %rcx,%rax
    60a8:	48 0f 42 c1          	cmovb  %rcx,%rax
    60ac:	48 89 d1             	mov    %rdx,%rcx
    60af:	48 8d 44 02 ff       	lea    -0x1(%rdx,%rax,1),%rax
    60b4:	48 f7 d9             	neg    %rcx
    60b7:	48 21 c8             	and    %rcx,%rax
    60ba:	48 89 44 24 10       	mov    %rax,0x10(%rsp)
    60bf:	31 c0                	xor    %eax,%eax
    60c1:	f0 0f b1 35 57 82 21 	lock cmpxchg %esi,0x218257(%rip)        # 21e320 <__default_pthread_attr_lock>
    60c8:	00 
    60c9:	74 1a                	je     60e5 <__pthread_initialize_minimal+0x265>
    60cb:	48 8d 3d 4e 82 21 00 	lea    0x21824e(%rip),%rdi        # 21e320 <__default_pthread_attr_lock>
    60d2:	48 81 ec 80 00 00 00 	sub    $0x80,%rsp
    60d9:	e8 f2 af 00 00       	callq  110d0 <__lll_lock_wait_private>
    60de:	48 81 c4 80 00 00 00 	add    $0x80,%rsp
    60e5:	48 8b 44 24 10       	mov    0x10(%rsp),%rax
    60ea:	48 89 15 3f 83 21 00 	mov    %rdx,0x21833f(%rip)        # 21e430 <__default_pthread_attr+0x10>
    60f1:	48 89 05 48 83 21 00 	mov    %rax,0x218348(%rip)        # 21e440 <__default_pthread_attr+0x20>
    60f8:	f0 ff 0d 21 82 21 00 	lock decl 0x218221(%rip)        # 21e320 <__default_pthread_attr_lock>
    60ff:	74 1a                	je     611b <__pthread_initialize_minimal+0x29b>
    6101:	48 8d 3d 18 82 21 00 	lea    0x218218(%rip),%rdi        # 21e320 <__default_pthread_attr_lock>
    6108:	48 81 ec 80 00 00 00 	sub    $0x80,%rsp
    610f:	e8 6c b0 00 00       	callq  11180 <__lll_unlock_wake_private>
    6114:	48 81 c4 80 00 00 00 	add    $0x80,%rsp
    611b:	48 8d 05 7e 3e 00 00 	lea    0x3e7e(%rip),%rax        # 9fa0 <__pthread_mutex_lock>
    6122:	48 89 85 00 0f 00 00 	mov    %rax,0xf00(%rbp)
    6129:	48 8d 05 70 56 00 00 	lea    0x5670(%rip),%rax        # b7a0 <__pthread_mutex_unlock>
    6130:	48 89 85 08 0f 00 00 	mov    %rax,0xf08(%rbp)
    6137:	8b 85 0c 09 00 00    	mov    0x90c(%rbp),%eax
    613d:	c7 85 0c 09 00 00 00 	movl   $0x0,0x90c(%rbp)
    6144:	00 00 00 
    6147:	85 c0                	test   %eax,%eax
    6149:	8d 58 ff             	lea    -0x1(%rax),%ebx
    614c:	74 1a                	je     6168 <__pthread_initialize_minimal+0x2e8>
    614e:	4c 8d a5 08 09 00 00 	lea    0x908(%rbp),%r12
    6155:	0f 1f 00             	nopl   (%rax)
    6158:	4c 89 e7             	mov    %r12,%rdi
    615b:	83 eb 01             	sub    $0x1,%ebx
    615e:	e8 3d 3e 00 00       	callq  9fa0 <__pthread_mutex_lock>
    6163:	83 fb ff             	cmp    $0xffffffff,%ebx
    6166:	75 f0                	jne    6158 <__pthread_initialize_minimal+0x2d8>
    6168:	48 8d 05 d1 05 00 00 	lea    0x5d1(%rip),%rax        # 6740 <__make_stacks_executable>
    616f:	48 8d 15 4a 3a 21 00 	lea    0x213a4a(%rip),%rdx        # 219bc0 <pthread_functions>
    6176:	48 8d 35 e3 06 00 00 	lea    0x6e3(%rip),%rsi        # 6860 <__reclaim_stacks>
    617d:	48 8d 3d e4 82 21 00 	lea    0x2182e4(%rip),%rdi        # 21e468 <__fork_generation>
    6184:	48 89 85 10 0f 00 00 	mov    %rax,0xf10(%rbp)
    618b:	48 8d 05 8e 0e 00 00 	lea    0xe8e(%rip),%rax        # 7020 <__pthread_init_static_tls>
    6192:	48 89 85 60 0f 00 00 	mov    %rax,0xf60(%rbp)
    6199:	48 8d 05 a0 0f 00 00 	lea    0xfa0(%rip),%rax        # 7140 <__wait_lookup_done>
    61a0:	48 89 85 68 0f 00 00 	mov    %rax,0xf68(%rbp)
    61a7:	e8 54 f8 ff ff       	callq  5a00 <__libc_pthread_init@plt>
    61ac:	48 89 05 2d 82 21 00 	mov    %rax,0x21822d(%rip)        # 21e3e0 <__libc_multiple_threads_ptr>
    61b3:	c7 05 47 82 21 00 01 	movl   $0x1,0x218247(%rip)        # 21e404 <__is_smp>
    61ba:	00 00 00 
    61bd:	48 8b 84 24 b8 00 00 	mov    0xb8(%rsp),%rax
    61c4:	00 
    61c5:	64 48 33 04 25 28 00 	xor    %fs:0x28,%rax
    61cc:	00 00 
    61ce:	75 0c                	jne    61dc <__pthread_initialize_minimal+0x35c>
    61d0:	48 81 c4 c0 00 00 00 	add    $0xc0,%rsp
    61d7:	5b                   	pop    %rbx
    61d8:	5d                   	pop    %rbp
    61d9:	41 5c                	pop    %r12
    61db:	c3                   	retq   
    61dc:	e8 ef f5 ff ff       	callq  57d0 <__stack_chk_fail@plt>
    61e1:	0f 1f 44 00 00       	nopl   0x0(%rax,%rax,1)
    61e6:	66 2e 0f 1f 84 00 00 	nopw   %cs:0x0(%rax,%rax,1)
    61ed:	00 00 00 

00000000000061f0 <__pthread_get_minstack>:
    61f0:	48 8b 15 c1 3d 21 00 	mov    0x213dc1(%rip),%rdx        # 219fb8 <_rtld_global_ro@GLIBC_PRIVATE>
    61f7:	48 8b 05 ea 81 21 00 	mov    0x2181ea(%rip),%rax        # 21e3e8 <__static_tls_size>
    61fe:	48 03 42 18          	add    0x18(%rdx),%rax
    6202:	48 05 00 40 00 00    	add    $0x4000,%rax
    6208:	c3                   	retq   
    6209:	0f 1f 80 00 00 00 00 	nopl   0x0(%rax)

0000000000006210 <__GI___nptl_create_event>:
    6210:	f3 c3                	repz retq 
    6212:	0f 1f 40 00          	nopl   0x0(%rax)
    6216:	66 2e 0f 1f 84 00 00 	nopw   %cs:0x0(%rax,%rax,1)
    621d:	00 00 00 

0000000000006220 <__GI___nptl_death_event>:
    6220:	f3 c3                	repz retq 
    6222:	66 2e 0f 1f 84 00 00 	nopw   %cs:0x0(%rax,%rax,1)
    6229:	00 00 00 
    622c:	0f 1f 40 00          	nopl   0x0(%rax)

0000000000006230 <__nptl_main>:
    6230:	48 8d 35 a9 df 00 00 	lea    0xdfa9(%rip),%rsi        # 141e0 <banner>
    6237:	bf 01 00 00 00       	mov    $0x1,%edi
    623c:	48 83 ec 08          	sub    $0x8,%rsp
    6240:	ba 05 01 00 00       	mov    $0x105,%edx
    6245:	e8 36 b0 00 00       	callq  11280 <__write>
    624a:	31 ff                	xor    %edi,%edi
    624c:	e8 af f4 ff ff       	callq  5700 <_exit@plt>
    6251:	66 2e 0f 1f 84 00 00 	nopw   %cs:0x0(%rax,%rax,1)
    6258:	00 00 00 
    625b:	0f 1f 44 00 00       	nopl   0x0(%rax,%rax,1)

0000000000006260 <setxid_mark_thread.isra.1>:
    6260:	41 54                	push   %r12
    6262:	55                   	push   %rbp
    6263:	49 89 f8             	mov    %rdi,%r8
    6266:	53                   	push   %rbx
    6267:	83 bf 1c 06 00 00 ff 	cmpl   $0xffffffff,0x61c(%rdi)
    626e:	74 30                	je     62a0 <setxid_mark_thread.isra.1+0x40>
    6270:	41 c7 80 1c 06 00 00 	movl   $0x0,0x61c(%r8)
    6277:	00 00 00 00 
    627b:	41 8b 80 08 03 00 00 	mov    0x308(%r8),%eax
    6282:	a8 10                	test   $0x10,%al
    6284:	0f 85 86 00 00 00    	jne    6310 <setxid_mark_thread.isra.1+0xb0>
    628a:	89 c2                	mov    %eax,%edx
    628c:	83 ca 40             	or     $0x40,%edx
    628f:	f0 41 0f b1 90 08 03 	lock cmpxchg %edx,0x308(%r8)
    6296:	00 00 
    6298:	75 e1                	jne    627b <setxid_mark_thread.isra.1+0x1b>
    629a:	5b                   	pop    %rbx
    629b:	5d                   	pop    %rbp
    629c:	41 5c                	pop    %r12
    629e:	c3                   	retq   
    629f:	90                   	nop
    62a0:	48 8d 9f 1c 06 00 00 	lea    0x61c(%rdi),%rbx
    62a7:	41 b9 fe ff ff ff    	mov    $0xfffffffe,%r9d
    62ad:	b8 ff ff ff ff       	mov    $0xffffffff,%eax
    62b2:	f0 44 0f b1 0b       	lock cmpxchg %r9d,(%rbx)
    62b7:	75 b7                	jne    6270 <setxid_mark_thread.isra.1+0x10>
    62b9:	bd ca 00 00 00       	mov    $0xca,%ebp
    62be:	41 bc 01 00 00 00    	mov    $0x1,%r12d
    62c4:	eb 14                	jmp    62da <setxid_mark_thread.isra.1+0x7a>
    62c6:	66 2e 0f 1f 84 00 00 	nopw   %cs:0x0(%rax,%rax,1)
    62cd:	00 00 00 
    62d0:	41 83 b8 1c 06 00 00 	cmpl   $0xfffffffe,0x61c(%r8)
    62d7:	fe 
    62d8:	75 96                	jne    6270 <setxid_mark_thread.isra.1+0x10>
    62da:	45 31 d2             	xor    %r10d,%r10d
    62dd:	44 89 ca             	mov    %r9d,%edx
    62e0:	be 80 00 00 00       	mov    $0x80,%esi
    62e5:	48 89 df             	mov    %rbx,%rdi
    62e8:	89 e8                	mov    %ebp,%eax
    62ea:	0f 05                	syscall 
    62ec:	48 3d 00 f0 ff ff    	cmp    $0xfffffffffffff000,%rax
    62f2:	76 dc                	jbe    62d0 <setxid_mark_thread.isra.1+0x70>
    62f4:	8d 48 0b             	lea    0xb(%rax),%ecx
    62f7:	83 f9 0b             	cmp    $0xb,%ecx
    62fa:	77 5c                	ja     6358 <setxid_mark_thread.isra.1+0xf8>
    62fc:	4c 89 e0             	mov    %r12,%rax
    62ff:	48 d3 e0             	shl    %cl,%rax
    6302:	a9 81 08 00 00       	test   $0x881,%eax
    6307:	75 c7                	jne    62d0 <setxid_mark_thread.isra.1+0x70>
    6309:	eb 4d                	jmp    6358 <setxid_mark_thread.isra.1+0xf8>
    630b:	0f 1f 44 00 00       	nopl   0x0(%rax,%rax,1)
    6310:	a8 40                	test   $0x40,%al
    6312:	75 86                	jne    629a <setxid_mark_thread.isra.1+0x3a>
    6314:	41 c7 80 1c 06 00 00 	movl   $0x1,0x61c(%r8)
    631b:	01 00 00 00 
    631f:	49 8d b8 1c 06 00 00 	lea    0x61c(%r8),%rdi
    6326:	45 31 d2             	xor    %r10d,%r10d
    6329:	ba 01 00 00 00       	mov    $0x1,%edx
    632e:	be 81 00 00 00       	mov    $0x81,%esi
    6333:	b8 ca 00 00 00       	mov    $0xca,%eax
    6338:	0f 05                	syscall 
    633a:	48 3d 00 f0 ff ff    	cmp    $0xfffffffffffff000,%rax
    6340:	0f 86 54 ff ff ff    	jbe    629a <setxid_mark_thread.isra.1+0x3a>
    6346:	83 f8 ea             	cmp    $0xffffffea,%eax
    6349:	0f 84 4b ff ff ff    	je     629a <setxid_mark_thread.isra.1+0x3a>
    634f:	83 f8 f2             	cmp    $0xfffffff2,%eax
    6352:	0f 84 42 ff ff ff    	je     629a <setxid_mark_thread.isra.1+0x3a>
    6358:	48 8d 3d 41 de 00 00 	lea    0xde41(%rip),%rdi        # 141a0 <_fini+0x1c>
    635f:	e8 cc f3 ff ff       	callq  5730 <__libc_fatal@plt>
    6364:	66 90                	xchg   %ax,%ax
    6366:	66 2e 0f 1f 84 00 00 	nopw   %cs:0x0(%rax,%rax,1)
    636d:	00 00 00 

0000000000006370 <__nptl_deallocate_tsd.part.5>:
    6370:	41 57                	push   %r15
    6372:	41 56                	push   %r14
    6374:	41 55                	push   %r13
    6376:	41 54                	push   %r12
    6378:	4c 8d 2d a1 3f 21 00 	lea    0x213fa1(%rip),%r13        # 21a320 <__GI___pthread_keys>
    637f:	55                   	push   %rbp
    6380:	53                   	push   %rbx
    6381:	48 83 ec 18          	sub    $0x18,%rsp
    6385:	48 c7 44 24 08 04 00 	movq   $0x4,0x8(%rsp)
    638c:	00 00 
    638e:	64 c6 04 25 10 06 00 	movb   $0x0,%fs:0x610
    6395:	00 00 
    6397:	41 bc 20 00 00 00    	mov    $0x20,%r12d
    639d:	31 ed                	xor    %ebp,%ebp
    639f:	90                   	nop
    63a0:	64 48 8b 1c ed 10 05 	mov    %fs:0x510(,%rbp,8),%rbx
    63a7:	00 00 
    63a9:	48 85 db             	test   %rbx,%rbx
    63ac:	74 62                	je     6410 <__nptl_deallocate_tsd.part.5+0xa0>
    63ae:	49 89 ef             	mov    %rbp,%r15
    63b1:	4c 89 e0             	mov    %r12,%rax
    63b4:	48 83 c3 08          	add    $0x8,%rbx
    63b8:	49 c1 e7 09          	shl    $0x9,%r15
    63bc:	48 c1 e0 04          	shl    $0x4,%rax
    63c0:	4d 01 ef             	add    %r13,%r15
    63c3:	4e 8d 34 28          	lea    (%rax,%r13,1),%r14
    63c7:	eb 14                	jmp    63dd <__nptl_deallocate_tsd.part.5+0x6d>
    63c9:	0f 1f 80 00 00 00 00 	nopl   0x0(%rax)
    63d0:	49 83 c7 10          	add    $0x10,%r15
    63d4:	48 83 c3 10          	add    $0x10,%rbx
    63d8:	4d 39 f7             	cmp    %r14,%r15
    63db:	74 33                	je     6410 <__nptl_deallocate_tsd.part.5+0xa0>
    63dd:	48 8b 3b             	mov    (%rbx),%rdi
    63e0:	48 85 ff             	test   %rdi,%rdi
    63e3:	74 eb                	je     63d0 <__nptl_deallocate_tsd.part.5+0x60>
    63e5:	49 8b 07             	mov    (%r15),%rax
    63e8:	48 39 43 f8          	cmp    %rax,-0x8(%rbx)
    63ec:	48 c7 03 00 00 00 00 	movq   $0x0,(%rbx)
    63f3:	75 db                	jne    63d0 <__nptl_deallocate_tsd.part.5+0x60>
    63f5:	49 8b 57 08          	mov    0x8(%r15),%rdx
    63f9:	48 85 d2             	test   %rdx,%rdx
    63fc:	74 d2                	je     63d0 <__nptl_deallocate_tsd.part.5+0x60>
    63fe:	49 83 c7 10          	add    $0x10,%r15
    6402:	48 83 c3 10          	add    $0x10,%rbx
    6406:	ff d2                	callq  *%rdx
    6408:	4d 39 f7             	cmp    %r14,%r15
    640b:	75 d0                	jne    63dd <__nptl_deallocate_tsd.part.5+0x6d>
    640d:	0f 1f 00             	nopl   (%rax)
    6410:	48 83 c5 01          	add    $0x1,%rbp
    6414:	49 83 c4 20          	add    $0x20,%r12
    6418:	48 83 fd 20          	cmp    $0x20,%rbp
    641c:	75 82                	jne    63a0 <__nptl_deallocate_tsd.part.5+0x30>
    641e:	31 c0                	xor    %eax,%eax
    6420:	64 8a 04 25 10 06 00 	mov    %fs:0x610,%al
    6427:	00 
    6428:	84 c0                	test   %al,%al
    642a:	74 4c                	je     6478 <__nptl_deallocate_tsd.part.5+0x108>
    642c:	48 83 6c 24 08 01    	subq   $0x1,0x8(%rsp)
    6432:	48 8b 74 24 08       	mov    0x8(%rsp),%rsi
    6437:	0f 85 51 ff ff ff    	jne    638e <__nptl_deallocate_tsd.part.5+0x1e>
    643d:	64 48 8b 04 25 10 00 	mov    %fs:0x10,%rax
    6444:	00 00 
    6446:	48 8d b8 18 03 00 00 	lea    0x318(%rax),%rdi
    644d:	48 c7 80 10 03 00 00 	movq   $0x0,0x310(%rax)
    6454:	00 00 00 00 
    6458:	48 c7 80 08 05 00 00 	movq   $0x0,0x508(%rax)
    645f:	00 00 00 00 
    6463:	48 83 e7 f8          	and    $0xfffffffffffffff8,%rdi
    6467:	29 f8                	sub    %edi,%eax
    6469:	8d 88 10 05 00 00    	lea    0x510(%rax),%ecx
    646f:	48 89 f0             	mov    %rsi,%rax
    6472:	c1 e9 03             	shr    $0x3,%ecx
    6475:	f3 48 ab             	rep stos %rax,%es:(%rdi)
    6478:	bb 01 00 00 00       	mov    $0x1,%ebx
    647d:	0f 1f 00             	nopl   (%rax)
    6480:	64 48 8b 3c dd 10 05 	mov    %fs:0x510(,%rbx,8),%rdi
    6487:	00 00 
    6489:	48 85 ff             	test   %rdi,%rdi
    648c:	74 12                	je     64a0 <__nptl_deallocate_tsd.part.5+0x130>
    648e:	e8 2d f2 ff ff       	callq  56c0 <free@plt>
    6493:	64 48 c7 04 dd 10 05 	movq   $0x0,%fs:0x510(,%rbx,8)
    649a:	00 00 00 00 00 00 
    64a0:	48 83 c3 01          	add    $0x1,%rbx
    64a4:	48 83 fb 20          	cmp    $0x20,%rbx
    64a8:	75 d6                	jne    6480 <__nptl_deallocate_tsd.part.5+0x110>
    64aa:	64 c6 04 25 10 06 00 	movb   $0x0,%fs:0x610
    64b1:	00 00 
    64b3:	48 83 c4 18          	add    $0x18,%rsp
    64b7:	5b                   	pop    %rbx
    64b8:	5d                   	pop    %rbp
    64b9:	41 5c                	pop    %r12
    64bb:	41 5d                	pop    %r13
    64bd:	41 5e                	pop    %r14
    64bf:	41 5f                	pop    %r15
    64c1:	c3                   	retq   
    64c2:	0f 1f 40 00          	nopl   0x0(%rax)
    64c6:	66 2e 0f 1f 84 00 00 	nopw   %cs:0x0(%rax,%rax,1)
    64cd:	00 00 00 

00000000000064d0 <__free_stacks>:
    64d0:	41 55                	push   %r13
    64d2:	41 54                	push   %r12
    64d4:	4c 8d 25 e5 3d 21 00 	lea    0x213de5(%rip),%r12        # 21a2c0 <stack_cache>
    64db:	55                   	push   %rbp
    64dc:	53                   	push   %rbx
    64dd:	49 89 fd             	mov    %rdi,%r13
    64e0:	48 83 ec 08          	sub    $0x8,%rsp
    64e4:	48 8b 1d dd 3d 21 00 	mov    0x213ddd(%rip),%rbx        # 21a2c8 <stack_cache+0x8>
    64eb:	4c 39 e3             	cmp    %r12,%rbx
    64ee:	48 8b 6b 08          	mov    0x8(%rbx),%rbp
    64f2:	75 1b                	jne    650f <__free_stacks+0x3f>
    64f4:	e9 7d 00 00 00       	jmpq   6576 <__free_stacks+0xa6>
    64f9:	0f 1f 80 00 00 00 00 	nopl   0x0(%rax)
    6500:	4c 39 e5             	cmp    %r12,%rbp
    6503:	48 8b 45 08          	mov    0x8(%rbp),%rax
    6507:	48 89 eb             	mov    %rbp,%rbx
    650a:	74 6a                	je     6576 <__free_stacks+0xa6>
    650c:	48 89 c5             	mov    %rax,%rbp
    650f:	8b 43 10             	mov    0x10(%rbx),%eax
    6512:	85 c0                	test   %eax,%eax
    6514:	7f ea                	jg     6500 <__free_stacks+0x30>
    6516:	48 89 1d 23 7e 21 00 	mov    %rbx,0x217e23(%rip)        # 21e340 <in_flight_stack>
    651d:	48 8b 53 08          	mov    0x8(%rbx),%rdx
    6521:	48 8b 03             	mov    (%rbx),%rax
    6524:	48 89 50 08          	mov    %rdx,0x8(%rax)
    6528:	48 8b 53 08          	mov    0x8(%rbx),%rdx
    652c:	48 89 02             	mov    %rax,(%rdx)
    652f:	48 8d bb 40 fd ff ff 	lea    -0x2c0(%rbx),%rdi
    6536:	31 f6                	xor    %esi,%esi
    6538:	48 8b 83 d8 03 00 00 	mov    0x3d8(%rbx),%rax
    653f:	48 c7 05 f6 7d 21 00 	movq   $0x0,0x217df6(%rip)        # 21e340 <in_flight_stack>
    6546:	00 00 00 00 
    654a:	48 29 05 ff 7d 21 00 	sub    %rax,0x217dff(%rip)        # 21e350 <stack_cache_actsize>
    6551:	e8 4a f3 ff ff       	callq  58a0 <_dl_deallocate_tls@plt>
    6556:	48 8b b3 d8 03 00 00 	mov    0x3d8(%rbx),%rsi
    655d:	48 8b bb d0 03 00 00 	mov    0x3d0(%rbx),%rdi
    6564:	e8 b7 f2 ff ff       	callq  5820 <__munmap@plt>
    6569:	85 c0                	test   %eax,%eax
    656b:	75 14                	jne    6581 <__free_stacks+0xb1>
    656d:	4c 39 2d dc 7d 21 00 	cmp    %r13,0x217ddc(%rip)        # 21e350 <stack_cache_actsize>
    6574:	77 8a                	ja     6500 <__free_stacks+0x30>
    6576:	48 83 c4 08          	add    $0x8,%rsp
    657a:	5b                   	pop    %rbx
    657b:	5d                   	pop    %rbp
    657c:	41 5c                	pop    %r12
    657e:	41 5d                	pop    %r13
    6580:	c3                   	retq   
    6581:	e8 5a f1 ff ff       	callq  56e0 <abort@plt>
    6586:	66 2e 0f 1f 84 00 00 	nopw   %cs:0x0(%rax,%rax,1)
    658d:	00 00 00 

0000000000006590 <__deallocate_stack>:
    6590:	41 54                	push   %r12
    6592:	48 89 fa             	mov    %rdi,%rdx
    6595:	55                   	push   %rbp
    6596:	be 01 00 00 00       	mov    $0x1,%esi
    659b:	53                   	push   %rbx
    659c:	31 c0                	xor    %eax,%eax
    659e:	f0 0f b1 35 a2 7d 21 	lock cmpxchg %esi,0x217da2(%rip)        # 21e348 <stack_cache_lock>
    65a5:	00 
    65a6:	74 1a                	je     65c2 <__deallocate_stack+0x32>
    65a8:	48 8d 3d 99 7d 21 00 	lea    0x217d99(%rip),%rdi        # 21e348 <stack_cache_lock>
    65af:	48 81 ec 80 00 00 00 	sub    $0x80,%rsp
    65b6:	e8 15 ab 00 00       	callq  110d0 <__lll_lock_wait_private>
    65bb:	48 81 c4 80 00 00 00 	add    $0x80,%rsp
    65c2:	48 8d 82 c0 02 00 00 	lea    0x2c0(%rdx),%rax
    65c9:	48 89 05 70 7d 21 00 	mov    %rax,0x217d70(%rip)        # 21e340 <in_flight_stack>
    65d0:	48 8b b2 c8 02 00 00 	mov    0x2c8(%rdx),%rsi
    65d7:	48 8b 8a c0 02 00 00 	mov    0x2c0(%rdx),%rcx
    65de:	48 89 71 08          	mov    %rsi,0x8(%rcx)
    65e2:	48 8b b2 c8 02 00 00 	mov    0x2c8(%rdx),%rsi
    65e9:	48 89 0e             	mov    %rcx,(%rsi)
    65ec:	80 ba 12 06 00 00 00 	cmpb   $0x0,0x612(%rdx)
    65f3:	48 c7 05 42 7d 21 00 	movq   $0x0,0x217d42(%rip)        # 21e340 <in_flight_stack>
    65fa:	00 00 00 00 
    65fe:	0f 85 8c 00 00 00    	jne    6690 <__deallocate_stack+0x100>
    6604:	48 89 c1             	mov    %rax,%rcx
    6607:	48 83 c9 01          	or     $0x1,%rcx
    660b:	48 89 0d 2e 7d 21 00 	mov    %rcx,0x217d2e(%rip)        # 21e340 <in_flight_stack>
    6612:	48 8b 0d a7 3c 21 00 	mov    0x213ca7(%rip),%rcx        # 21a2c0 <stack_cache>
    6619:	4c 8d 25 a0 3c 21 00 	lea    0x213ca0(%rip),%r12        # 21a2c0 <stack_cache>
    6620:	4c 89 a2 c8 02 00 00 	mov    %r12,0x2c8(%rdx)
    6627:	48 89 8a c0 02 00 00 	mov    %rcx,0x2c0(%rdx)
    662e:	48 89 41 08          	mov    %rax,0x8(%rcx)
    6632:	48 89 05 87 3c 21 00 	mov    %rax,0x213c87(%rip)        # 21a2c0 <stack_cache>
    6639:	48 8b 05 10 7d 21 00 	mov    0x217d10(%rip),%rax        # 21e350 <stack_cache_actsize>
    6640:	48 03 82 98 06 00 00 	add    0x698(%rdx),%rax
    6647:	48 c7 05 ee 7c 21 00 	movq   $0x0,0x217cee(%rip)        # 21e340 <in_flight_stack>
    664e:	00 00 00 00 
    6652:	48 3d 00 00 80 02    	cmp    $0x2800000,%rax
    6658:	48 89 05 f1 7c 21 00 	mov    %rax,0x217cf1(%rip)        # 21e350 <stack_cache_actsize>
    665f:	77 3f                	ja     66a0 <__deallocate_stack+0x110>
    6661:	f0 ff 0d e0 7c 21 00 	lock decl 0x217ce0(%rip)        # 21e348 <stack_cache_lock>
    6668:	74 1a                	je     6684 <__deallocate_stack+0xf4>
    666a:	48 8d 3d d7 7c 21 00 	lea    0x217cd7(%rip),%rdi        # 21e348 <stack_cache_lock>
    6671:	48 81 ec 80 00 00 00 	sub    $0x80,%rsp
    6678:	e8 03 ab 00 00       	callq  11180 <__lll_unlock_wake_private>
    667d:	48 81 c4 80 00 00 00 	add    $0x80,%rsp
    6684:	5b                   	pop    %rbx
    6685:	5d                   	pop    %rbp
    6686:	41 5c                	pop    %r12
    6688:	c3                   	retq   
    6689:	0f 1f 80 00 00 00 00 	nopl   0x0(%rax)
    6690:	31 f6                	xor    %esi,%esi
    6692:	48 89 d7             	mov    %rdx,%rdi
    6695:	e8 06 f2 ff ff       	callq  58a0 <_dl_deallocate_tls@plt>
    669a:	eb c5                	jmp    6661 <__deallocate_stack+0xd1>
    669c:	0f 1f 40 00          	nopl   0x0(%rax)
    66a0:	48 8b 1d 21 3c 21 00 	mov    0x213c21(%rip),%rbx        # 21a2c8 <stack_cache+0x8>
    66a7:	4c 39 e3             	cmp    %r12,%rbx
    66aa:	48 8b 6b 08          	mov    0x8(%rbx),%rbp
    66ae:	75 17                	jne    66c7 <__deallocate_stack+0x137>
    66b0:	eb af                	jmp    6661 <__deallocate_stack+0xd1>
    66b2:	66 0f 1f 44 00 00    	nopw   0x0(%rax,%rax,1)
    66b8:	4c 39 e5             	cmp    %r12,%rbp
    66bb:	48 8b 45 08          	mov    0x8(%rbp),%rax
    66bf:	48 89 eb             	mov    %rbp,%rbx
    66c2:	74 9d                	je     6661 <__deallocate_stack+0xd1>
    66c4:	48 89 c5             	mov    %rax,%rbp
    66c7:	8b 43 10             	mov    0x10(%rbx),%eax
    66ca:	85 c0                	test   %eax,%eax
    66cc:	7f ea                	jg     66b8 <__deallocate_stack+0x128>
    66ce:	48 89 1d 6b 7c 21 00 	mov    %rbx,0x217c6b(%rip)        # 21e340 <in_flight_stack>
    66d5:	48 8b 53 08          	mov    0x8(%rbx),%rdx
    66d9:	48 8b 03             	mov    (%rbx),%rax
    66dc:	48 89 50 08          	mov    %rdx,0x8(%rax)
    66e0:	48 8b 53 08          	mov    0x8(%rbx),%rdx
    66e4:	48 89 02             	mov    %rax,(%rdx)
    66e7:	48 8d bb 40 fd ff ff 	lea    -0x2c0(%rbx),%rdi
    66ee:	31 f6                	xor    %esi,%esi
    66f0:	48 8b 83 d8 03 00 00 	mov    0x3d8(%rbx),%rax
    66f7:	48 c7 05 3e 7c 21 00 	movq   $0x0,0x217c3e(%rip)        # 21e340 <in_flight_stack>
    66fe:	00 00 00 00 
    6702:	48 29 05 47 7c 21 00 	sub    %rax,0x217c47(%rip)        # 21e350 <stack_cache_actsize>
    6709:	e8 92 f1 ff ff       	callq  58a0 <_dl_deallocate_tls@plt>
    670e:	48 8b b3 d8 03 00 00 	mov    0x3d8(%rbx),%rsi
    6715:	48 8b bb d0 03 00 00 	mov    0x3d0(%rbx),%rdi
    671c:	e8 ff f0 ff ff       	callq  5820 <__munmap@plt>
    6721:	85 c0                	test   %eax,%eax
    6723:	75 12                	jne    6737 <__deallocate_stack+0x1a7>
    6725:	48 81 3d 20 7c 21 00 	cmpq   $0x2800000,0x217c20(%rip)        # 21e350 <stack_cache_actsize>
    672c:	00 00 80 02 
    6730:	77 86                	ja     66b8 <__deallocate_stack+0x128>
    6732:	e9 2a ff ff ff       	jmpq   6661 <__deallocate_stack+0xd1>
    6737:	e8 a4 ef ff ff       	callq  56e0 <abort@plt>
    673c:	0f 1f 40 00          	nopl   0x0(%rax)

0000000000006740 <__make_stacks_executable>:
    6740:	55                   	push   %rbp
    6741:	53                   	push   %rbx
    6742:	48 83 ec 08          	sub    $0x8,%rsp
    6746:	e8 a5 f2 ff ff       	callq  59f0 <_dl_make_stack_executable@plt>
    674b:	85 c0                	test   %eax,%eax
    674d:	0f 85 96 00 00 00    	jne    67e9 <__make_stacks_executable+0xa9>
    6753:	be 01 00 00 00       	mov    $0x1,%esi
    6758:	f0 0f b1 35 e8 7b 21 	lock cmpxchg %esi,0x217be8(%rip)        # 21e348 <stack_cache_lock>
    675f:	00 
    6760:	74 1a                	je     677c <__make_stacks_executable+0x3c>
    6762:	48 8d 3d df 7b 21 00 	lea    0x217bdf(%rip),%rdi        # 21e348 <stack_cache_lock>
    6769:	48 81 ec 80 00 00 00 	sub    $0x80,%rsp
    6770:	e8 5b a9 00 00       	callq  110d0 <__lll_lock_wait_private>
    6775:	48 81 c4 80 00 00 00 	add    $0x80,%rsp
    677c:	48 8b 1d 2d 3b 21 00 	mov    0x213b2d(%rip),%rbx        # 21a2b0 <stack_used>
    6783:	48 8d 2d 26 3b 21 00 	lea    0x213b26(%rip),%rbp        # 21a2b0 <stack_used>
    678a:	48 39 eb             	cmp    %rbp,%rbx
    678d:	74 69                	je     67f8 <__make_stacks_executable+0xb8>
    678f:	90                   	nop
    6790:	48 8b bb e0 03 00 00 	mov    0x3e0(%rbx),%rdi
    6797:	48 8b b3 d8 03 00 00 	mov    0x3d8(%rbx),%rsi
    679e:	ba 07 00 00 00       	mov    $0x7,%edx
    67a3:	48 29 fe             	sub    %rdi,%rsi
    67a6:	48 03 bb d0 03 00 00 	add    0x3d0(%rbx),%rdi
    67ad:	e8 ae f1 ff ff       	callq  5960 <__mprotect@plt>
    67b2:	85 c0                	test   %eax,%eax
    67b4:	74 3a                	je     67f0 <__make_stacks_executable+0xb0>
    67b6:	48 8b 05 e3 37 21 00 	mov    0x2137e3(%rip),%rax        # 219fa0 <errno@GLIBC_PRIVATE>
    67bd:	64 8b 10             	mov    %fs:(%rax),%edx
    67c0:	85 d2                	test   %edx,%edx
    67c2:	74 2c                	je     67f0 <__make_stacks_executable+0xb0>
    67c4:	f0 ff 0d 7d 7b 21 00 	lock decl 0x217b7d(%rip)        # 21e348 <stack_cache_lock>
    67cb:	74 1a                	je     67e7 <__make_stacks_executable+0xa7>
    67cd:	48 8d 3d 74 7b 21 00 	lea    0x217b74(%rip),%rdi        # 21e348 <stack_cache_lock>
    67d4:	48 81 ec 80 00 00 00 	sub    $0x80,%rsp
    67db:	e8 a0 a9 00 00       	callq  11180 <__lll_unlock_wake_private>
    67e0:	48 81 c4 80 00 00 00 	add    $0x80,%rsp
    67e7:	89 d0                	mov    %edx,%eax
    67e9:	48 83 c4 08          	add    $0x8,%rsp
    67ed:	5b                   	pop    %rbx
    67ee:	5d                   	pop    %rbp
    67ef:	c3                   	retq   
    67f0:	48 8b 1b             	mov    (%rbx),%rbx
    67f3:	48 39 eb             	cmp    %rbp,%rbx
    67f6:	75 98                	jne    6790 <__make_stacks_executable+0x50>
    67f8:	48 8b 1d c1 3a 21 00 	mov    0x213ac1(%rip),%rbx        # 21a2c0 <stack_cache>
    67ff:	48 8d 2d ba 3a 21 00 	lea    0x213aba(%rip),%rbp        # 21a2c0 <stack_cache>
    6806:	48 39 eb             	cmp    %rbp,%rbx
    6809:	74 41                	je     684c <__make_stacks_executable+0x10c>
    680b:	0f 1f 44 00 00       	nopl   0x0(%rax,%rax,1)
    6810:	48 8b bb e0 03 00 00 	mov    0x3e0(%rbx),%rdi
    6817:	48 8b b3 d8 03 00 00 	mov    0x3d8(%rbx),%rsi
    681e:	ba 07 00 00 00       	mov    $0x7,%edx
    6823:	48 29 fe             	sub    %rdi,%rsi
    6826:	48 03 bb d0 03 00 00 	add    0x3d0(%rbx),%rdi
    682d:	e8 2e f1 ff ff       	callq  5960 <__mprotect@plt>
    6832:	85 c0                	test   %eax,%eax
    6834:	74 0e                	je     6844 <__make_stacks_executable+0x104>
    6836:	48 8b 05 63 37 21 00 	mov    0x213763(%rip),%rax        # 219fa0 <errno@GLIBC_PRIVATE>
    683d:	64 8b 10             	mov    %fs:(%rax),%edx
    6840:	85 d2                	test   %edx,%edx
    6842:	75 80                	jne    67c4 <__make_stacks_executable+0x84>
    6844:	48 8b 1b             	mov    (%rbx),%rbx
    6847:	48 39 eb             	cmp    %rbp,%rbx
    684a:	75 c4                	jne    6810 <__make_stacks_executable+0xd0>
    684c:	31 d2                	xor    %edx,%edx
    684e:	e9 71 ff ff ff       	jmpq   67c4 <__make_stacks_executable+0x84>
    6853:	0f 1f 00             	nopl   (%rax)
    6856:	66 2e 0f 1f 84 00 00 	nopw   %cs:0x0(%rax,%rax,1)
    685d:	00 00 00 

0000000000006860 <__reclaim_stacks>:
    6860:	48 83 ec 18          	sub    $0x18,%rsp
    6864:	48 8b 05 d5 7a 21 00 	mov    0x217ad5(%rip),%rax        # 21e340 <in_flight_stack>
    686b:	64 4c 8b 14 25 10 00 	mov    %fs:0x10,%r10
    6872:	00 00 
    6874:	48 85 c0             	test   %rax,%rax
    6877:	74 59                	je     68d2 <__reclaim_stacks+0x72>
    6879:	48 89 c2             	mov    %rax,%rdx
    687c:	48 83 e2 fe          	and    $0xfffffffffffffffe,%rdx
    6880:	a8 01                	test   $0x1,%al
    6882:	74 3c                	je     68c0 <__reclaim_stacks+0x60>
    6884:	48 8b 35 25 3a 21 00 	mov    0x213a25(%rip),%rsi        # 21a2b0 <stack_used>
    688b:	4c 8d 0d 1e 3a 21 00 	lea    0x213a1e(%rip),%r9        # 21a2b0 <stack_used>
    6892:	4c 89 c8             	mov    %r9,%rax
    6895:	48 8b 4e 08          	mov    0x8(%rsi),%rcx
    6899:	4c 39 c9             	cmp    %r9,%rcx
    689c:	0f 84 0c 02 00 00    	je     6aae <__reclaim_stacks+0x24e>
    68a2:	48 39 ca             	cmp    %rcx,%rdx
    68a5:	0f 85 4b 02 00 00    	jne    6af6 <__reclaim_stacks+0x296>
    68ab:	48 89 32             	mov    %rsi,(%rdx)
    68ae:	48 89 42 08          	mov    %rax,0x8(%rdx)
    68b2:	48 89 10             	mov    %rdx,(%rax)
    68b5:	48 8b 35 f4 39 21 00 	mov    0x2139f4(%rip),%rsi        # 21a2b0 <stack_used>
    68bc:	eb 22                	jmp    68e0 <__reclaim_stacks+0x80>
    68be:	66 90                	xchg   %ax,%ax
    68c0:	48 8b 02             	mov    (%rdx),%rax
    68c3:	48 8b 4a 08          	mov    0x8(%rdx),%rcx
    68c7:	48 89 48 08          	mov    %rcx,0x8(%rax)
    68cb:	48 8b 52 08          	mov    0x8(%rdx),%rdx
    68cf:	48 89 02             	mov    %rax,(%rdx)
    68d2:	48 8b 35 d7 39 21 00 	mov    0x2139d7(%rip),%rsi        # 21a2b0 <stack_used>
    68d9:	4c 8d 0d d0 39 21 00 	lea    0x2139d0(%rip),%r9        # 21a2b0 <stack_used>
    68e0:	31 c0                	xor    %eax,%eax
    68e2:	4c 39 ce             	cmp    %r9,%rsi
    68e5:	74 75                	je     695c <__reclaim_stacks+0xfc>
    68e7:	66 0f 1f 84 00 00 00 	nopw   0x0(%rax,%rax,1)
    68ee:	00 00 
    68f0:	48 8d 96 40 fd ff ff 	lea    -0x2c0(%rsi),%rdx
    68f7:	49 39 d2             	cmp    %rdx,%r10
    68fa:	74 22                	je     691e <__reclaim_stacks+0xbe>
    68fc:	48 8b 96 d8 03 00 00 	mov    0x3d8(%rsi),%rdx
    6903:	48 01 15 46 7a 21 00 	add    %rdx,0x217a46(%rip)        # 21e350 <stack_cache_actsize>
    690a:	80 be 50 03 00 00 00 	cmpb   $0x0,0x350(%rsi)
    6911:	c7 46 10 00 00 00 00 	movl   $0x0,0x10(%rsi)
    6918:	0f 85 0a 01 00 00    	jne    6a28 <__reclaim_stacks+0x1c8>
    691e:	48 8b 36             	mov    (%rsi),%rsi
    6921:	4c 39 ce             	cmp    %r9,%rsi
    6924:	75 ca                	jne    68f0 <__reclaim_stacks+0x90>
    6926:	49 8b 01             	mov    (%r9),%rax
    6929:	4c 39 c8             	cmp    %r9,%rax
    692c:	74 2e                	je     695c <__reclaim_stacks+0xfc>
    692e:	48 8d 35 8b 39 21 00 	lea    0x21398b(%rip),%rsi        # 21a2c0 <stack_cache>
    6935:	48 8b 15 84 39 21 00 	mov    0x213984(%rip),%rdx        # 21a2c0 <stack_cache>
    693c:	48 89 70 08          	mov    %rsi,0x8(%rax)
    6940:	49 8b 41 08          	mov    0x8(%r9),%rax
    6944:	48 89 10             	mov    %rdx,(%rax)
    6947:	48 8b 15 72 39 21 00 	mov    0x213972(%rip),%rdx        # 21a2c0 <stack_cache>
    694e:	48 89 42 08          	mov    %rax,0x8(%rdx)
    6952:	49 8b 01             	mov    (%r9),%rax
    6955:	48 89 05 64 39 21 00 	mov    %rax,0x213964(%rip)        # 21a2c0 <stack_cache>
    695c:	48 8d 05 cd 79 21 00 	lea    0x2179cd(%rip),%rax        # 21e330 <__GI___stack_user>
    6963:	49 8d 92 c0 02 00 00 	lea    0x2c0(%r10),%rdx
    696a:	48 89 44 24 08       	mov    %rax,0x8(%rsp)
    696f:	48 89 15 ca 79 21 00 	mov    %rdx,0x2179ca(%rip)        # 21e340 <in_flight_stack>
    6976:	f3 0f 7e 44 24 08    	movq   0x8(%rsp),%xmm0
    697c:	49 8b 8a c8 02 00 00 	mov    0x2c8(%r10),%rcx
    6983:	49 8b 82 c0 02 00 00 	mov    0x2c0(%r10),%rax
    698a:	48 89 48 08          	mov    %rcx,0x8(%rax)
    698e:	49 8b 8a c8 02 00 00 	mov    0x2c8(%r10),%rcx
    6995:	48 89 01             	mov    %rax,(%rcx)
    6998:	4c 89 4c 24 08       	mov    %r9,0x8(%rsp)
    699d:	48 c7 05 98 79 21 00 	movq   $0x0,0x217998(%rip)        # 21e340 <in_flight_stack>
    69a4:	00 00 00 00 
    69a8:	31 c0                	xor    %eax,%eax
    69aa:	f3 0f 7e 4c 24 08    	movq   0x8(%rsp),%xmm1
    69b0:	66 0f 6c c9          	punpcklqdq %xmm1,%xmm1
    69b4:	0f 29 0d f5 38 21 00 	movaps %xmm1,0x2138f5(%rip)        # 21a2b0 <stack_used>
    69bb:	66 0f 6f c8          	movdqa %xmm0,%xmm1
    69bf:	66 0f 6c c9          	punpcklqdq %xmm1,%xmm1
    69c3:	0f 29 0d 66 79 21 00 	movaps %xmm1,0x217966(%rip)        # 21e330 <__GI___stack_user>
    69ca:	64 8a 04 25 12 06 00 	mov    %fs:0x612,%al
    69d1:	00 
    69d2:	84 c0                	test   %al,%al
    69d4:	0f 85 f7 00 00 00    	jne    6ad1 <__reclaim_stacks+0x271>
    69da:	4d 89 8a c0 02 00 00 	mov    %r9,0x2c0(%r10)
    69e1:	4d 89 8a c8 02 00 00 	mov    %r9,0x2c8(%r10)
    69e8:	48 89 15 c9 38 21 00 	mov    %rdx,0x2138c9(%rip)        # 21a2b8 <stack_used+0x8>
    69ef:	48 89 15 ba 38 21 00 	mov    %rdx,0x2138ba(%rip)        # 21a2b0 <stack_used>
    69f6:	c7 05 a8 38 21 00 01 	movl   $0x1,0x2138a8(%rip)        # 21a2a8 <__nptl_nthreads>
    69fd:	00 00 00 
    6a00:	48 c7 05 35 79 21 00 	movq   $0x0,0x217935(%rip)        # 21e340 <in_flight_stack>
    6a07:	00 00 00 00 
    6a0b:	c7 05 33 79 21 00 00 	movl   $0x0,0x217933(%rip)        # 21e348 <stack_cache_lock>
    6a12:	00 00 00 
    6a15:	c7 05 01 79 21 00 00 	movl   $0x0,0x217901(%rip)        # 21e320 <__default_pthread_attr_lock>
    6a1c:	00 00 00 
    6a1f:	48 83 c4 18          	add    $0x18,%rsp
    6a23:	c3                   	retq   
    6a24:	0f 1f 40 00          	nopl   0x0(%rax)
    6a28:	48 8d 7e 58          	lea    0x58(%rsi),%rdi
    6a2c:	89 f1                	mov    %esi,%ecx
    6a2e:	48 8d 96 58 02 00 00 	lea    0x258(%rsi),%rdx
    6a35:	4c 8d 86 50 03 00 00 	lea    0x350(%rsi),%r8
    6a3c:	48 c7 46 50 00 00 00 	movq   $0x0,0x50(%rsi)
    6a43:	00 
    6a44:	48 83 e7 f8          	and    $0xfffffffffffffff8,%rdi
    6a48:	48 c7 42 f0 00 00 00 	movq   $0x0,-0x10(%rdx)
    6a4f:	00 
    6a50:	29 f9                	sub    %edi,%ecx
    6a52:	81 c1 50 02 00 00    	add    $0x250,%ecx
    6a58:	c1 e9 03             	shr    $0x3,%ecx
    6a5b:	f3 48 ab             	rep stos %rax,%es:(%rdi)
    6a5e:	c6 86 50 03 00 00 00 	movb   $0x0,0x350(%rsi)
    6a65:	0f 1f 00             	nopl   (%rax)
    6a68:	48 8b 0a             	mov    (%rdx),%rcx
    6a6b:	48 85 c9             	test   %rcx,%rcx
    6a6e:	74 30                	je     6aa0 <__reclaim_stacks+0x240>
    6a70:	48 8d 79 08          	lea    0x8(%rcx),%rdi
    6a74:	48 c7 01 00 00 00 00 	movq   $0x0,(%rcx)
    6a7b:	48 c7 81 f8 01 00 00 	movq   $0x0,0x1f8(%rcx)
    6a82:	00 00 00 00 
    6a86:	48 83 e7 f8          	and    $0xfffffffffffffff8,%rdi
    6a8a:	48 29 f9             	sub    %rdi,%rcx
    6a8d:	81 c1 00 02 00 00    	add    $0x200,%ecx
    6a93:	c1 e9 03             	shr    $0x3,%ecx
    6a96:	f3 48 ab             	rep stos %rax,%es:(%rdi)
    6a99:	c6 86 50 03 00 00 01 	movb   $0x1,0x350(%rsi)
    6aa0:	48 83 c2 08          	add    $0x8,%rdx
    6aa4:	4c 39 c2             	cmp    %r8,%rdx
    6aa7:	75 bf                	jne    6a68 <__reclaim_stacks+0x208>
    6aa9:	e9 70 fe ff ff       	jmpq   691e <__reclaim_stacks+0xbe>
    6aae:	48 8b 3d 0b 38 21 00 	mov    0x21380b(%rip),%rdi        # 21a2c0 <stack_cache>
    6ab5:	48 8d 05 04 38 21 00 	lea    0x213804(%rip),%rax        # 21a2c0 <stack_cache>
    6abc:	48 8b 4f 08          	mov    0x8(%rdi),%rcx
    6ac0:	48 39 c1             	cmp    %rax,%rcx
    6ac3:	0f 84 17 fe ff ff    	je     68e0 <__reclaim_stacks+0x80>
    6ac9:	48 89 fe             	mov    %rdi,%rsi
    6acc:	e9 d1 fd ff ff       	jmpq   68a2 <__reclaim_stacks+0x42>
    6ad1:	66 41 0f d6 82 c0 02 	movq   %xmm0,0x2c0(%r10)
    6ad8:	00 00 
    6ada:	48 89 15 57 78 21 00 	mov    %rdx,0x217857(%rip)        # 21e338 <__GI___stack_user+0x8>
    6ae1:	66 41 0f d6 82 c8 02 	movq   %xmm0,0x2c8(%r10)
    6ae8:	00 00 
    6aea:	48 89 15 3f 78 21 00 	mov    %rdx,0x21783f(%rip)        # 21e330 <__GI___stack_user>
    6af1:	e9 00 ff ff ff       	jmpq   69f6 <__reclaim_stacks+0x196>
    6af6:	48 8d 0d 43 d9 00 00 	lea    0xd943(%rip),%rcx        # 14440 <__PRETTY_FUNCTION__.12669>
    6afd:	48 8d 35 33 d8 00 00 	lea    0xd833(%rip),%rsi        # 14337 <__PRETTY_FUNCTION__.12610+0xf>
    6b04:	48 8d 3d 3c d8 00 00 	lea    0xd83c(%rip),%rdi        # 14347 <__PRETTY_FUNCTION__.12610+0x1f>
    6b0b:	ba 7e 03 00 00       	mov    $0x37e,%edx
    6b10:	e8 2b ed ff ff       	callq  5840 <__assert_fail@plt>
    6b15:	90                   	nop
    6b16:	66 2e 0f 1f 84 00 00 	nopw   %cs:0x0(%rax,%rax,1)
    6b1d:	00 00 00 

0000000000006b20 <__find_thread_by_id>:
    6b20:	89 fa                	mov    %edi,%edx
    6b22:	be 01 00 00 00       	mov    $0x1,%esi
    6b27:	31 c0                	xor    %eax,%eax
    6b29:	f0 0f b1 35 17 78 21 	lock cmpxchg %esi,0x217817(%rip)        # 21e348 <stack_cache_lock>
    6b30:	00 
    6b31:	74 1a                	je     6b4d <__find_thread_by_id+0x2d>
    6b33:	48 8d 3d 0e 78 21 00 	lea    0x21780e(%rip),%rdi        # 21e348 <stack_cache_lock>
    6b3a:	48 81 ec 80 00 00 00 	sub    $0x80,%rsp
    6b41:	e8 8a a5 00 00       	callq  110d0 <__lll_lock_wait_private>
    6b46:	48 81 c4 80 00 00 00 	add    $0x80,%rsp
    6b4d:	48 8b 05 5c 37 21 00 	mov    0x21375c(%rip),%rax        # 21a2b0 <stack_used>
    6b54:	48 8d 0d 55 37 21 00 	lea    0x213755(%rip),%rcx        # 21a2b0 <stack_used>
    6b5b:	48 39 c8             	cmp    %rcx,%rax
    6b5e:	74 1d                	je     6b7d <__find_thread_by_id+0x5d>
    6b60:	3b 50 10             	cmp    0x10(%rax),%edx
    6b63:	75 10                	jne    6b75 <__find_thread_by_id+0x55>
    6b65:	eb 51                	jmp    6bb8 <__find_thread_by_id+0x98>
    6b67:	66 0f 1f 84 00 00 00 	nopw   0x0(%rax,%rax,1)
    6b6e:	00 00 
    6b70:	39 50 10             	cmp    %edx,0x10(%rax)
    6b73:	74 43                	je     6bb8 <__find_thread_by_id+0x98>
    6b75:	48 8b 00             	mov    (%rax),%rax
    6b78:	48 39 c8             	cmp    %rcx,%rax
    6b7b:	75 f3                	jne    6b70 <__find_thread_by_id+0x50>
    6b7d:	48 8b 05 ac 77 21 00 	mov    0x2177ac(%rip),%rax        # 21e330 <__GI___stack_user>
    6b84:	48 8d 0d a5 77 21 00 	lea    0x2177a5(%rip),%rcx        # 21e330 <__GI___stack_user>
    6b8b:	48 39 c8             	cmp    %rcx,%rax
    6b8e:	74 1d                	je     6bad <__find_thread_by_id+0x8d>
    6b90:	3b 50 10             	cmp    0x10(%rax),%edx
    6b93:	75 10                	jne    6ba5 <__find_thread_by_id+0x85>
    6b95:	eb 21                	jmp    6bb8 <__find_thread_by_id+0x98>
    6b97:	66 0f 1f 84 00 00 00 	nopw   0x0(%rax,%rax,1)
    6b9e:	00 00 
    6ba0:	39 50 10             	cmp    %edx,0x10(%rax)
    6ba3:	74 13                	je     6bb8 <__find_thread_by_id+0x98>
    6ba5:	48 8b 00             	mov    (%rax),%rax
    6ba8:	48 39 c8             	cmp    %rcx,%rax
    6bab:	75 f3                	jne    6ba0 <__find_thread_by_id+0x80>
    6bad:	31 d2                	xor    %edx,%edx
    6baf:	eb 0e                	jmp    6bbf <__find_thread_by_id+0x9f>
    6bb1:	0f 1f 80 00 00 00 00 	nopl   0x0(%rax)
    6bb8:	48 8d 90 40 fd ff ff 	lea    -0x2c0(%rax),%rdx
    6bbf:	f0 ff 0d 82 77 21 00 	lock decl 0x217782(%rip)        # 21e348 <stack_cache_lock>
    6bc6:	74 1a                	je     6be2 <__find_thread_by_id+0xc2>
    6bc8:	48 8d 3d 79 77 21 00 	lea    0x217779(%rip),%rdi        # 21e348 <stack_cache_lock>
    6bcf:	48 81 ec 80 00 00 00 	sub    $0x80,%rsp
    6bd6:	e8 a5 a5 00 00       	callq  11180 <__lll_unlock_wake_private>
    6bdb:	48 81 c4 80 00 00 00 	add    $0x80,%rsp
    6be2:	48 89 d0             	mov    %rdx,%rax
    6be5:	c3                   	retq   
    6be6:	66 2e 0f 1f 84 00 00 	nopw   %cs:0x0(%rax,%rax,1)
    6bed:	00 00 00 

0000000000006bf0 <__nptl_setxid_error>:
    6bf0:	8b 47 24             	mov    0x24(%rdi),%eax
    6bf3:	39 f0                	cmp    %esi,%eax
    6bf5:	74 0c                	je     6c03 <__nptl_setxid_error+0x13>
    6bf7:	83 f8 ff             	cmp    $0xffffffff,%eax
    6bfa:	75 09                	jne    6c05 <__nptl_setxid_error+0x15>
    6bfc:	f0 0f b1 77 24       	lock cmpxchg %esi,0x24(%rdi)
    6c01:	75 ed                	jne    6bf0 <__nptl_setxid_error>
    6c03:	f3 c3                	repz retq 
    6c05:	48 83 ec 18          	sub    $0x18,%rsp
    6c09:	89 74 24 0c          	mov    %esi,0xc(%rsp)
    6c0d:	e8 ce ea ff ff       	callq  56e0 <abort@plt>
    6c12:	0f 1f 40 00          	nopl   0x0(%rax)
    6c16:	66 2e 0f 1f 84 00 00 	nopw   %cs:0x0(%rax,%rax,1)
    6c1d:	00 00 00 

0000000000006c20 <__nptl_setxid>:
    6c20:	41 57                	push   %r15
    6c22:	41 56                	push   %r14
    6c24:	be 01 00 00 00       	mov    $0x1,%esi
    6c29:	41 55                	push   %r13
    6c2b:	41 54                	push   %r12
    6c2d:	31 c0                	xor    %eax,%eax
    6c2f:	55                   	push   %rbp
    6c30:	53                   	push   %rbx
    6c31:	48 89 fb             	mov    %rdi,%rbx
    6c34:	48 83 ec 28          	sub    $0x28,%rsp
    6c38:	f0 0f b1 35 08 77 21 	lock cmpxchg %esi,0x217708(%rip)        # 21e348 <stack_cache_lock>
    6c3f:	00 
    6c40:	74 1a                	je     6c5c <__nptl_setxid+0x3c>
    6c42:	48 8d 3d ff 76 21 00 	lea    0x2176ff(%rip),%rdi        # 21e348 <stack_cache_lock>
    6c49:	48 81 ec 80 00 00 00 	sub    $0x80,%rsp
    6c50:	e8 7b a4 00 00       	callq  110d0 <__lll_lock_wait_private>
    6c55:	48 81 c4 80 00 00 00 	add    $0x80,%rsp
    6c5c:	48 8b 2d 4d 36 21 00 	mov    0x21364d(%rip),%rbp        # 21a2b0 <stack_used>
    6c63:	4c 8d 2d 46 36 21 00 	lea    0x213646(%rip),%r13        # 21a2b0 <stack_used>
    6c6a:	c7 43 20 00 00 00 00 	movl   $0x0,0x20(%rbx)
    6c71:	64 4c 8b 3c 25 10 00 	mov    %fs:0x10,%r15
    6c78:	00 00 
    6c7a:	48 89 1d 4f 77 21 00 	mov    %rbx,0x21774f(%rip)        # 21e3d0 <__xidcmd>
    6c81:	c7 43 24 ff ff ff ff 	movl   $0xffffffff,0x24(%rbx)
    6c88:	4c 39 ed             	cmp    %r13,%rbp
    6c8b:	74 21                	je     6cae <__nptl_setxid+0x8e>
    6c8d:	0f 1f 00             	nopl   (%rax)
    6c90:	48 8d bd 40 fd ff ff 	lea    -0x2c0(%rbp),%rdi
    6c97:	49 39 ff             	cmp    %rdi,%r15
    6c9a:	0f 84 f0 02 00 00    	je     6f90 <__nptl_setxid+0x370>
    6ca0:	e8 bb f5 ff ff       	callq  6260 <setxid_mark_thread.isra.1>
    6ca5:	48 8b 6d 00          	mov    0x0(%rbp),%rbp
    6ca9:	4c 39 ed             	cmp    %r13,%rbp
    6cac:	75 e2                	jne    6c90 <__nptl_setxid+0x70>
    6cae:	48 8b 2d 7b 76 21 00 	mov    0x21767b(%rip),%rbp        # 21e330 <__GI___stack_user>
    6cb5:	4c 8d 25 74 76 21 00 	lea    0x217674(%rip),%r12        # 21e330 <__GI___stack_user>
    6cbc:	4c 39 e5             	cmp    %r12,%rbp
    6cbf:	74 25                	je     6ce6 <__nptl_setxid+0xc6>
    6cc1:	0f 1f 80 00 00 00 00 	nopl   0x0(%rax)
    6cc8:	48 8d bd 40 fd ff ff 	lea    -0x2c0(%rbp),%rdi
    6ccf:	49 39 ff             	cmp    %rdi,%r15
    6cd2:	0f 84 ca 02 00 00    	je     6fa2 <__nptl_setxid+0x382>
    6cd8:	e8 83 f5 ff ff       	callq  6260 <setxid_mark_thread.isra.1>
    6cdd:	48 8b 6d 00          	mov    0x0(%rbp),%rbp
    6ce1:	4c 39 e5             	cmp    %r12,%rbp
    6ce4:	75 e2                	jne    6cc8 <__nptl_setxid+0xa8>
    6ce6:	4c 8d 73 20          	lea    0x20(%rbx),%r14
    6cea:	bd ca 00 00 00       	mov    $0xca,%ebp
    6cef:	90                   	nop
    6cf0:	4d 8b 55 00          	mov    0x0(%r13),%r10
    6cf4:	4d 39 ea             	cmp    %r13,%r10
    6cf7:	0f 84 6d 02 00 00    	je     6f6a <__nptl_setxid+0x34a>
    6cfd:	c7 44 24 04 00 00 00 	movl   $0x0,0x4(%rsp)
    6d04:	00 
    6d05:	eb 11                	jmp    6d18 <__nptl_setxid+0xf8>
    6d07:	66 0f 1f 84 00 00 00 	nopw   0x0(%rax,%rax,1)
    6d0e:	00 00 
    6d10:	4d 8b 12             	mov    (%r10),%r10
    6d13:	4d 39 ea             	cmp    %r13,%r10
    6d16:	74 50                	je     6d68 <__nptl_setxid+0x148>
    6d18:	49 8d 82 40 fd ff ff 	lea    -0x2c0(%r10),%rax
    6d1f:	49 39 c7             	cmp    %rax,%r15
    6d22:	74 ec                	je     6d10 <__nptl_setxid+0xf0>
    6d24:	41 f6 42 48 40       	testb  $0x40,0x48(%r10)
    6d29:	74 e5                	je     6d10 <__nptl_setxid+0xf0>
    6d2b:	4c 89 54 24 08       	mov    %r10,0x8(%rsp)
    6d30:	e8 8b ea ff ff       	callq  57c0 <__getpid@plt>
    6d35:	4c 8b 54 24 08       	mov    0x8(%rsp),%r10
    6d3a:	89 c7                	mov    %eax,%edi
    6d3c:	ba 21 00 00 00       	mov    $0x21,%edx
    6d41:	b8 ea 00 00 00       	mov    $0xea,%eax
    6d46:	41 8b 72 10          	mov    0x10(%r10),%esi
    6d4a:	0f 05                	syscall 
    6d4c:	3d 00 f0 ff ff       	cmp    $0xfffff000,%eax
    6d51:	77 bd                	ja     6d10 <__nptl_setxid+0xf0>
    6d53:	f0 ff 43 20          	lock incl 0x20(%rbx)
    6d57:	4d 8b 12             	mov    (%r10),%r10
    6d5a:	83 44 24 04 01       	addl   $0x1,0x4(%rsp)
    6d5f:	4d 39 ea             	cmp    %r13,%r10
    6d62:	75 b4                	jne    6d18 <__nptl_setxid+0xf8>
    6d64:	0f 1f 40 00          	nopl   0x0(%rax)
    6d68:	4d 8b 14 24          	mov    (%r12),%r10
    6d6c:	4d 39 e2             	cmp    %r12,%r10
    6d6f:	75 0f                	jne    6d80 <__nptl_setxid+0x160>
    6d71:	eb 5d                	jmp    6dd0 <__nptl_setxid+0x1b0>
    6d73:	0f 1f 44 00 00       	nopl   0x0(%rax,%rax,1)
    6d78:	4d 8b 12             	mov    (%r10),%r10
    6d7b:	4d 39 e2             	cmp    %r12,%r10
    6d7e:	74 50                	je     6dd0 <__nptl_setxid+0x1b0>
    6d80:	49 8d 82 40 fd ff ff 	lea    -0x2c0(%r10),%rax
    6d87:	49 39 c7             	cmp    %rax,%r15
    6d8a:	74 ec                	je     6d78 <__nptl_setxid+0x158>
    6d8c:	41 f6 42 48 40       	testb  $0x40,0x48(%r10)
    6d91:	74 e5                	je     6d78 <__nptl_setxid+0x158>
    6d93:	4c 89 54 24 08       	mov    %r10,0x8(%rsp)
    6d98:	e8 23 ea ff ff       	callq  57c0 <__getpid@plt>
    6d9d:	4c 8b 54 24 08       	mov    0x8(%rsp),%r10
    6da2:	89 c7                	mov    %eax,%edi
    6da4:	ba 21 00 00 00       	mov    $0x21,%edx
    6da9:	b8 ea 00 00 00       	mov    $0xea,%eax
    6dae:	41 8b 72 10          	mov    0x10(%r10),%esi
    6db2:	0f 05                	syscall 
    6db4:	3d 00 f0 ff ff       	cmp    $0xfffff000,%eax
    6db9:	77 bd                	ja     6d78 <__nptl_setxid+0x158>
    6dbb:	f0 ff 43 20          	lock incl 0x20(%rbx)
    6dbf:	4d 8b 12             	mov    (%r10),%r10
    6dc2:	83 44 24 04 01       	addl   $0x1,0x4(%rsp)
    6dc7:	4d 39 e2             	cmp    %r12,%r10
    6dca:	75 b4                	jne    6d80 <__nptl_setxid+0x160>
    6dcc:	0f 1f 40 00          	nopl   0x0(%rax)
    6dd0:	8b 53 20             	mov    0x20(%rbx),%edx
    6dd3:	85 d2                	test   %edx,%edx
    6dd5:	74 41                	je     6e18 <__nptl_setxid+0x1f8>
    6dd7:	45 31 d2             	xor    %r10d,%r10d
    6dda:	be 80 00 00 00       	mov    $0x80,%esi
    6ddf:	4c 89 f7             	mov    %r14,%rdi
    6de2:	89 e8                	mov    %ebp,%eax
    6de4:	0f 05                	syscall 
    6de6:	48 3d 00 f0 ff ff    	cmp    $0xfffffffffffff000,%rax
    6dec:	76 e2                	jbe    6dd0 <__nptl_setxid+0x1b0>
    6dee:	8d 48 0b             	lea    0xb(%rax),%ecx
    6df1:	83 f9 0b             	cmp    $0xb,%ecx
    6df4:	77 0f                	ja     6e05 <__nptl_setxid+0x1e5>
    6df6:	b8 01 00 00 00       	mov    $0x1,%eax
    6dfb:	48 d3 e0             	shl    %cl,%rax
    6dfe:	a9 81 08 00 00       	test   $0x881,%eax
    6e03:	75 cb                	jne    6dd0 <__nptl_setxid+0x1b0>
    6e05:	48 8d 3d 94 d3 00 00 	lea    0xd394(%rip),%rdi        # 141a0 <_fini+0x1c>
    6e0c:	e8 1f e9 ff ff       	callq  5730 <__libc_fatal@plt>
    6e11:	0f 1f 80 00 00 00 00 	nopl   0x0(%rax)
    6e18:	8b 44 24 04          	mov    0x4(%rsp),%eax
    6e1c:	85 c0                	test   %eax,%eax
    6e1e:	0f 85 cc fe ff ff    	jne    6cf0 <__nptl_setxid+0xd0>
    6e24:	4c 8b 05 85 34 21 00 	mov    0x213485(%rip),%r8        # 21a2b0 <stack_used>
    6e2b:	bd ca 00 00 00       	mov    $0xca,%ebp
    6e30:	4d 39 e8             	cmp    %r13,%r8
    6e33:	74 5b                	je     6e90 <__nptl_setxid+0x270>
    6e35:	0f 1f 00             	nopl   (%rax)
    6e38:	49 8d 80 40 fd ff ff 	lea    -0x2c0(%r8),%rax
    6e3f:	49 39 c7             	cmp    %rax,%r15
    6e42:	74 44                	je     6e88 <__nptl_setxid+0x268>
    6e44:	41 8b 40 48          	mov    0x48(%r8),%eax
    6e48:	a8 40                	test   $0x40,%al
    6e4a:	74 3c                	je     6e88 <__nptl_setxid+0x268>
    6e4c:	89 c2                	mov    %eax,%edx
    6e4e:	83 e2 bf             	and    $0xffffffbf,%edx
    6e51:	f0 41 0f b1 50 48    	lock cmpxchg %edx,0x48(%r8)
    6e57:	75 eb                	jne    6e44 <__nptl_setxid+0x224>
    6e59:	41 c7 80 5c 03 00 00 	movl   $0x1,0x35c(%r8)
    6e60:	01 00 00 00 
    6e64:	49 8d b8 5c 03 00 00 	lea    0x35c(%r8),%rdi
    6e6b:	45 31 d2             	xor    %r10d,%r10d
    6e6e:	ba 01 00 00 00       	mov    $0x1,%edx
    6e73:	be 81 00 00 00       	mov    $0x81,%esi
    6e78:	89 e8                	mov    %ebp,%eax
    6e7a:	0f 05                	syscall 
    6e7c:	48 3d 00 f0 ff ff    	cmp    $0xfffffffffffff000,%rax
    6e82:	0f 87 48 01 00 00    	ja     6fd0 <__nptl_setxid+0x3b0>
    6e88:	4d 8b 00             	mov    (%r8),%r8
    6e8b:	4d 39 e8             	cmp    %r13,%r8
    6e8e:	75 a8                	jne    6e38 <__nptl_setxid+0x218>
    6e90:	4c 8b 05 99 74 21 00 	mov    0x217499(%rip),%r8        # 21e330 <__GI___stack_user>
    6e97:	4d 39 e0             	cmp    %r12,%r8
    6e9a:	74 64                	je     6f00 <__nptl_setxid+0x2e0>
    6e9c:	bd ca 00 00 00       	mov    $0xca,%ebp
    6ea1:	0f 1f 80 00 00 00 00 	nopl   0x0(%rax)
    6ea8:	49 8d 80 40 fd ff ff 	lea    -0x2c0(%r8),%rax
    6eaf:	49 39 c7             	cmp    %rax,%r15
    6eb2:	74 44                	je     6ef8 <__nptl_setxid+0x2d8>
    6eb4:	41 8b 40 48          	mov    0x48(%r8),%eax
    6eb8:	a8 40                	test   $0x40,%al
    6eba:	74 3c                	je     6ef8 <__nptl_setxid+0x2d8>
    6ebc:	89 c2                	mov    %eax,%edx
    6ebe:	83 e2 bf             	and    $0xffffffbf,%edx
    6ec1:	f0 41 0f b1 50 48    	lock cmpxchg %edx,0x48(%r8)
    6ec7:	75 eb                	jne    6eb4 <__nptl_setxid+0x294>
    6ec9:	41 c7 80 5c 03 00 00 	movl   $0x1,0x35c(%r8)
    6ed0:	01 00 00 00 
    6ed4:	49 8d b8 5c 03 00 00 	lea    0x35c(%r8),%rdi
    6edb:	45 31 d2             	xor    %r10d,%r10d
    6ede:	ba 01 00 00 00       	mov    $0x1,%edx
    6ee3:	be 81 00 00 00       	mov    $0x81,%esi
    6ee8:	89 e8                	mov    %ebp,%eax
    6eea:	0f 05                	syscall 
    6eec:	48 3d 00 f0 ff ff    	cmp    $0xfffffffffffff000,%rax
    6ef2:	0f 87 bc 00 00 00    	ja     6fb4 <__nptl_setxid+0x394>
    6ef8:	4d 8b 00             	mov    (%r8),%r8
    6efb:	4d 39 e0             	cmp    %r12,%r8
    6efe:	75 a8                	jne    6ea8 <__nptl_setxid+0x288>
    6f00:	48 8b 73 10          	mov    0x10(%rbx),%rsi
    6f04:	48 8b 7b 08          	mov    0x8(%rbx),%rdi
    6f08:	48 8b 53 18          	mov    0x18(%rbx),%rdx
    6f0c:	8b 03                	mov    (%rbx),%eax
    6f0e:	0f 05                	syscall 
    6f10:	31 d2                	xor    %edx,%edx
    6f12:	3d 00 f0 ff ff       	cmp    $0xfffff000,%eax
    6f17:	89 c6                	mov    %eax,%esi
    6f19:	0f 87 d1 00 00 00    	ja     6ff0 <__nptl_setxid+0x3d0>
    6f1f:	8b 43 24             	mov    0x24(%rbx),%eax
    6f22:	39 c2                	cmp    %eax,%edx
    6f24:	74 10                	je     6f36 <__nptl_setxid+0x316>
    6f26:	83 f8 ff             	cmp    $0xffffffff,%eax
    6f29:	0f 85 d9 00 00 00    	jne    7008 <__nptl_setxid+0x3e8>
    6f2f:	f0 0f b1 53 24       	lock cmpxchg %edx,0x24(%rbx)
    6f34:	75 e9                	jne    6f1f <__nptl_setxid+0x2ff>
    6f36:	f0 ff 0d 0b 74 21 00 	lock decl 0x21740b(%rip)        # 21e348 <stack_cache_lock>
    6f3d:	74 1a                	je     6f59 <__nptl_setxid+0x339>
    6f3f:	48 8d 3d 02 74 21 00 	lea    0x217402(%rip),%rdi        # 21e348 <stack_cache_lock>
    6f46:	48 81 ec 80 00 00 00 	sub    $0x80,%rsp
    6f4d:	e8 2e a2 00 00       	callq  11180 <__lll_unlock_wake_private>
    6f52:	48 81 c4 80 00 00 00 	add    $0x80,%rsp
    6f59:	48 83 c4 28          	add    $0x28,%rsp
    6f5d:	89 f0                	mov    %esi,%eax
    6f5f:	5b                   	pop    %rbx
    6f60:	5d                   	pop    %rbp
    6f61:	41 5c                	pop    %r12
    6f63:	41 5d                	pop    %r13
    6f65:	41 5e                	pop    %r14
    6f67:	41 5f                	pop    %r15
    6f69:	c3                   	retq   
    6f6a:	4d 8b 14 24          	mov    (%r12),%r10
    6f6e:	c7 44 24 04 00 00 00 	movl   $0x0,0x4(%rsp)
    6f75:	00 
    6f76:	4d 39 e2             	cmp    %r12,%r10
    6f79:	0f 85 01 fe ff ff    	jne    6d80 <__nptl_setxid+0x160>
    6f7f:	8b 53 20             	mov    0x20(%rbx),%edx
    6f82:	85 d2                	test   %edx,%edx
    6f84:	0f 85 4d fe ff ff    	jne    6dd7 <__nptl_setxid+0x1b7>
    6f8a:	e9 71 ff ff ff       	jmpq   6f00 <__nptl_setxid+0x2e0>
    6f8f:	90                   	nop
    6f90:	48 8b 6d 00          	mov    0x0(%rbp),%rbp
    6f94:	4c 39 ed             	cmp    %r13,%rbp
    6f97:	0f 85 f3 fc ff ff    	jne    6c90 <__nptl_setxid+0x70>
    6f9d:	e9 0c fd ff ff       	jmpq   6cae <__nptl_setxid+0x8e>
    6fa2:	48 8b 6d 00          	mov    0x0(%rbp),%rbp
    6fa6:	4c 39 e5             	cmp    %r12,%rbp
    6fa9:	0f 85 19 fd ff ff    	jne    6cc8 <__nptl_setxid+0xa8>
    6faf:	e9 32 fd ff ff       	jmpq   6ce6 <__nptl_setxid+0xc6>
    6fb4:	83 f8 ea             	cmp    $0xffffffea,%eax
    6fb7:	0f 84 3b ff ff ff    	je     6ef8 <__nptl_setxid+0x2d8>
    6fbd:	83 f8 f2             	cmp    $0xfffffff2,%eax
    6fc0:	0f 84 32 ff ff ff    	je     6ef8 <__nptl_setxid+0x2d8>
    6fc6:	e9 3a fe ff ff       	jmpq   6e05 <__nptl_setxid+0x1e5>
    6fcb:	0f 1f 44 00 00       	nopl   0x0(%rax,%rax,1)
    6fd0:	83 f8 ea             	cmp    $0xffffffea,%eax
    6fd3:	0f 84 af fe ff ff    	je     6e88 <__nptl_setxid+0x268>
    6fd9:	83 f8 f2             	cmp    $0xfffffff2,%eax
    6fdc:	0f 84 a6 fe ff ff    	je     6e88 <__nptl_setxid+0x268>
    6fe2:	e9 1e fe ff ff       	jmpq   6e05 <__nptl_setxid+0x1e5>
    6fe7:	66 0f 1f 84 00 00 00 	nopw   0x0(%rax,%rax,1)
    6fee:	00 00 
    6ff0:	89 c2                	mov    %eax,%edx
    6ff2:	48 8b 05 a7 2f 21 00 	mov    0x212fa7(%rip),%rax        # 219fa0 <errno@GLIBC_PRIVATE>
    6ff9:	be ff ff ff ff       	mov    $0xffffffff,%esi
    6ffe:	f7 da                	neg    %edx
    7000:	64 89 10             	mov    %edx,%fs:(%rax)
    7003:	e9 17 ff ff ff       	jmpq   6f1f <__nptl_setxid+0x2ff>
    7008:	89 54 24 1c          	mov    %edx,0x1c(%rsp)
    700c:	e8 cf e6 ff ff       	callq  56e0 <abort@plt>
    7011:	0f 1f 44 00 00       	nopl   0x0(%rax,%rax,1)
    7016:	66 2e 0f 1f 84 00 00 	nopw   %cs:0x0(%rax,%rax,1)
    701d:	00 00 00 

0000000000007020 <__pthread_init_static_tls>:
    7020:	41 56                	push   %r14
    7022:	be 01 00 00 00       	mov    $0x1,%esi
    7027:	41 55                	push   %r13
    7029:	31 c0                	xor    %eax,%eax
    702b:	41 54                	push   %r12
    702d:	55                   	push   %rbp
    702e:	53                   	push   %rbx
    702f:	48 89 fb             	mov    %rdi,%rbx
    7032:	f0 0f b1 35 0e 73 21 	lock cmpxchg %esi,0x21730e(%rip)        # 21e348 <stack_cache_lock>
    7039:	00 
    703a:	74 1a                	je     7056 <__pthread_init_static_tls+0x36>
    703c:	48 8d 3d 05 73 21 00 	lea    0x217305(%rip),%rdi        # 21e348 <stack_cache_lock>
    7043:	48 81 ec 80 00 00 00 	sub    $0x80,%rsp
    704a:	e8 81 a0 00 00       	callq  110d0 <__lll_lock_wait_private>
    704f:	48 81 c4 80 00 00 00 	add    $0x80,%rsp
    7056:	48 8b 2d 53 32 21 00 	mov    0x213253(%rip),%rbp        # 21a2b0 <stack_used>
    705d:	4c 8d 2d 4c 32 21 00 	lea    0x21324c(%rip),%r13        # 21a2b0 <stack_used>
    7064:	4c 39 ed             	cmp    %r13,%rbp
    7067:	74 47                	je     70b0 <__pthread_init_static_tls+0x90>
    7069:	49 c7 c6 40 fd ff ff 	mov    $0xfffffffffffffd40,%r14
    7070:	4c 89 f7             	mov    %r14,%rdi
    7073:	48 2b bb 40 04 00 00 	sub    0x440(%rbx),%rdi
    707a:	48 8b 93 20 04 00 00 	mov    0x420(%rbx),%rdx
    7081:	4c 8b a3 28 04 00 00 	mov    0x428(%rbx),%r12
    7088:	48 8b b3 18 04 00 00 	mov    0x418(%rbx),%rsi
    708f:	48 01 ef             	add    %rbp,%rdi
    7092:	49 29 d4             	sub    %rdx,%r12
    7095:	e8 c6 e6 ff ff       	callq  5760 <__mempcpy@plt>
    709a:	31 f6                	xor    %esi,%esi
    709c:	4c 89 e2             	mov    %r12,%rdx
    709f:	48 89 c7             	mov    %rax,%rdi
    70a2:	e8 a9 e7 ff ff       	callq  5850 <memset@plt>
    70a7:	48 8b 6d 00          	mov    0x0(%rbp),%rbp
    70ab:	4c 39 ed             	cmp    %r13,%rbp
    70ae:	75 c0                	jne    7070 <__pthread_init_static_tls+0x50>
    70b0:	48 8b 2d 79 72 21 00 	mov    0x217279(%rip),%rbp        # 21e330 <__GI___stack_user>
    70b7:	4c 8d 2d 72 72 21 00 	lea    0x217272(%rip),%r13        # 21e330 <__GI___stack_user>
    70be:	4c 39 ed             	cmp    %r13,%rbp
    70c1:	74 4d                	je     7110 <__pthread_init_static_tls+0xf0>
    70c3:	49 c7 c6 40 fd ff ff 	mov    $0xfffffffffffffd40,%r14
    70ca:	66 0f 1f 44 00 00    	nopw   0x0(%rax,%rax,1)
    70d0:	4c 89 f7             	mov    %r14,%rdi
    70d3:	48 2b bb 40 04 00 00 	sub    0x440(%rbx),%rdi
    70da:	48 8b 93 20 04 00 00 	mov    0x420(%rbx),%rdx
    70e1:	4c 8b a3 28 04 00 00 	mov    0x428(%rbx),%r12
    70e8:	48 8b b3 18 04 00 00 	mov    0x418(%rbx),%rsi
    70ef:	48 01 ef             	add    %rbp,%rdi
    70f2:	49 29 d4             	sub    %rdx,%r12
    70f5:	e8 66 e6 ff ff       	callq  5760 <__mempcpy@plt>
    70fa:	31 f6                	xor    %esi,%esi
    70fc:	4c 89 e2             	mov    %r12,%rdx
    70ff:	48 89 c7             	mov    %rax,%rdi
    7102:	e8 49 e7 ff ff       	callq  5850 <memset@plt>
    7107:	48 8b 6d 00          	mov    0x0(%rbp),%rbp
    710b:	4c 39 ed             	cmp    %r13,%rbp
    710e:	75 c0                	jne    70d0 <__pthread_init_static_tls+0xb0>
    7110:	f0 ff 0d 31 72 21 00 	lock decl 0x217231(%rip)        # 21e348 <stack_cache_lock>
    7117:	74 1a                	je     7133 <__pthread_init_static_tls+0x113>
    7119:	48 8d 3d 28 72 21 00 	lea    0x217228(%rip),%rdi        # 21e348 <stack_cache_lock>
    7120:	48 81 ec 80 00 00 00 	sub    $0x80,%rsp
    7127:	e8 54 a0 00 00       	callq  11180 <__lll_unlock_wake_private>
    712c:	48 81 c4 80 00 00 00 	add    $0x80,%rsp
    7133:	5b                   	pop    %rbx
    7134:	5d                   	pop    %rbp
    7135:	41 5c                	pop    %r12
    7137:	41 5d                	pop    %r13
    7139:	41 5e                	pop    %r14
    713b:	c3                   	retq   
    713c:	0f 1f 40 00          	nopl   0x0(%rax)

0000000000007140 <__wait_lookup_done>:
    7140:	41 57                	push   %r15
    7142:	41 56                	push   %r14
    7144:	be 01 00 00 00       	mov    $0x1,%esi
    7149:	41 55                	push   %r13
    714b:	41 54                	push   %r12
    714d:	31 c0                	xor    %eax,%eax
    714f:	55                   	push   %rbp
    7150:	53                   	push   %rbx
    7151:	48 83 ec 08          	sub    $0x8,%rsp
    7155:	f0 0f b1 35 eb 71 21 	lock cmpxchg %esi,0x2171eb(%rip)        # 21e348 <stack_cache_lock>
    715c:	00 
    715d:	74 1a                	je     7179 <__wait_lookup_done+0x39>
    715f:	48 8d 3d e2 71 21 00 	lea    0x2171e2(%rip),%rdi        # 21e348 <stack_cache_lock>
    7166:	48 81 ec 80 00 00 00 	sub    $0x80,%rsp
    716d:	e8 5e 9f 00 00       	callq  110d0 <__lll_lock_wait_private>
    7172:	48 81 c4 80 00 00 00 	add    $0x80,%rsp
    7179:	4c 8b 05 30 31 21 00 	mov    0x213130(%rip),%r8        # 21a2b0 <stack_used>
    7180:	4c 8d 25 29 31 21 00 	lea    0x213129(%rip),%r12        # 21a2b0 <stack_used>
    7187:	64 48 8b 2c 25 10 00 	mov    %fs:0x10,%rbp
    718e:	00 00 
    7190:	4d 39 e0             	cmp    %r12,%r8
    7193:	0f 84 a3 00 00 00    	je     723c <__wait_lookup_done+0xfc>
    7199:	41 bf 01 00 00 00    	mov    $0x1,%r15d
    719f:	41 be 02 00 00 00    	mov    $0x2,%r14d
    71a5:	bb ca 00 00 00       	mov    $0xca,%ebx
    71aa:	41 bd 01 00 00 00    	mov    $0x1,%r13d
    71b0:	4d 8d 88 40 fd ff ff 	lea    -0x2c0(%r8),%r9
    71b7:	4c 39 cd             	cmp    %r9,%rbp
    71ba:	74 74                	je     7230 <__wait_lookup_done+0xf0>
    71bc:	41 8b 90 5c fd ff ff 	mov    -0x2a4(%r8),%edx
    71c3:	85 d2                	test   %edx,%edx
    71c5:	74 69                	je     7230 <__wait_lookup_done+0xf0>
    71c7:	49 83 c1 1c          	add    $0x1c,%r9
    71cb:	44 89 f8             	mov    %r15d,%eax
    71ce:	f0 45 0f b1 31       	lock cmpxchg %r14d,(%r9)
    71d3:	74 15                	je     71ea <__wait_lookup_done+0xaa>
    71d5:	eb 59                	jmp    7230 <__wait_lookup_done+0xf0>
    71d7:	66 0f 1f 84 00 00 00 	nopw   0x0(%rax,%rax,1)
    71de:	00 00 
    71e0:	41 83 b8 5c fd ff ff 	cmpl   $0x2,-0x2a4(%r8)
    71e7:	02 
    71e8:	75 46                	jne    7230 <__wait_lookup_done+0xf0>
    71ea:	45 31 d2             	xor    %r10d,%r10d
    71ed:	ba 02 00 00 00       	mov    $0x2,%edx
    71f2:	be 80 00 00 00       	mov    $0x80,%esi
    71f7:	4c 89 cf             	mov    %r9,%rdi
    71fa:	89 d8                	mov    %ebx,%eax
    71fc:	0f 05                	syscall 
    71fe:	48 3d 00 f0 ff ff    	cmp    $0xfffffffffffff000,%rax
    7204:	76 da                	jbe    71e0 <__wait_lookup_done+0xa0>
    7206:	8d 48 0b             	lea    0xb(%rax),%ecx
    7209:	83 f9 0b             	cmp    $0xb,%ecx
    720c:	77 0d                	ja     721b <__wait_lookup_done+0xdb>
    720e:	4c 89 e8             	mov    %r13,%rax
    7211:	48 d3 e0             	shl    %cl,%rax
    7214:	a9 81 08 00 00       	test   $0x881,%eax
    7219:	75 c5                	jne    71e0 <__wait_lookup_done+0xa0>
    721b:	48 8d 3d 7e cf 00 00 	lea    0xcf7e(%rip),%rdi        # 141a0 <_fini+0x1c>
    7222:	e8 09 e5 ff ff       	callq  5730 <__libc_fatal@plt>
    7227:	66 0f 1f 84 00 00 00 	nopw   0x0(%rax,%rax,1)
    722e:	00 00 
    7230:	4d 8b 00             	mov    (%r8),%r8
    7233:	4d 39 e0             	cmp    %r12,%r8
    7236:	0f 85 74 ff ff ff    	jne    71b0 <__wait_lookup_done+0x70>
    723c:	4c 8b 05 ed 70 21 00 	mov    0x2170ed(%rip),%r8        # 21e330 <__GI___stack_user>
    7243:	4c 8d 25 e6 70 21 00 	lea    0x2170e6(%rip),%r12        # 21e330 <__GI___stack_user>
    724a:	4d 39 e0             	cmp    %r12,%r8
    724d:	0f 84 a9 00 00 00    	je     72fc <__wait_lookup_done+0x1bc>
    7253:	41 bf 01 00 00 00    	mov    $0x1,%r15d
    7259:	41 be 02 00 00 00    	mov    $0x2,%r14d
    725f:	bb ca 00 00 00       	mov    $0xca,%ebx
    7264:	41 bd 01 00 00 00    	mov    $0x1,%r13d
    726a:	66 0f 1f 44 00 00    	nopw   0x0(%rax,%rax,1)
    7270:	4d 8d 88 40 fd ff ff 	lea    -0x2c0(%r8),%r9
    7277:	4c 39 cd             	cmp    %r9,%rbp
    727a:	74 74                	je     72f0 <__wait_lookup_done+0x1b0>
    727c:	41 8b 80 5c fd ff ff 	mov    -0x2a4(%r8),%eax
    7283:	85 c0                	test   %eax,%eax
    7285:	74 69                	je     72f0 <__wait_lookup_done+0x1b0>
    7287:	49 83 c1 1c          	add    $0x1c,%r9
    728b:	44 89 f8             	mov    %r15d,%eax
    728e:	f0 45 0f b1 31       	lock cmpxchg %r14d,(%r9)
    7293:	74 15                	je     72aa <__wait_lookup_done+0x16a>
    7295:	eb 59                	jmp    72f0 <__wait_lookup_done+0x1b0>
    7297:	66 0f 1f 84 00 00 00 	nopw   0x0(%rax,%rax,1)
    729e:	00 00 
    72a0:	41 83 b8 5c fd ff ff 	cmpl   $0x2,-0x2a4(%r8)
    72a7:	02 
    72a8:	75 46                	jne    72f0 <__wait_lookup_done+0x1b0>
    72aa:	45 31 d2             	xor    %r10d,%r10d
    72ad:	ba 02 00 00 00       	mov    $0x2,%edx
    72b2:	be 80 00 00 00       	mov    $0x80,%esi
    72b7:	4c 89 cf             	mov    %r9,%rdi
    72ba:	89 d8                	mov    %ebx,%eax
    72bc:	0f 05                	syscall 
    72be:	48 3d 00 f0 ff ff    	cmp    $0xfffffffffffff000,%rax
    72c4:	76 da                	jbe    72a0 <__wait_lookup_done+0x160>
    72c6:	8d 48 0b             	lea    0xb(%rax),%ecx
    72c9:	83 f9 0b             	cmp    $0xb,%ecx
    72cc:	0f 87 49 ff ff ff    	ja     721b <__wait_lookup_done+0xdb>
    72d2:	4c 89 e8             	mov    %r13,%rax
    72d5:	48 d3 e0             	shl    %cl,%rax
    72d8:	a9 81 08 00 00       	test   $0x881,%eax
    72dd:	0f 84 38 ff ff ff    	je     721b <__wait_lookup_done+0xdb>
    72e3:	41 83 b8 5c fd ff ff 	cmpl   $0x2,-0x2a4(%r8)
    72ea:	02 
    72eb:	74 bd                	je     72aa <__wait_lookup_done+0x16a>
    72ed:	0f 1f 00             	nopl   (%rax)
    72f0:	4d 8b 00             	mov    (%r8),%r8
    72f3:	4d 39 e0             	cmp    %r12,%r8
    72f6:	0f 85 74 ff ff ff    	jne    7270 <__wait_lookup_done+0x130>
    72fc:	f0 ff 0d 45 70 21 00 	lock decl 0x217045(%rip)        # 21e348 <stack_cache_lock>
    7303:	74 1a                	je     731f <__wait_lookup_done+0x1df>
    7305:	48 8d 3d 3c 70 21 00 	lea    0x21703c(%rip),%rdi        # 21e348 <stack_cache_lock>
    730c:	48 81 ec 80 00 00 00 	sub    $0x80,%rsp
    7313:	e8 68 9e 00 00       	callq  11180 <__lll_unlock_wake_private>
    7318:	48 81 c4 80 00 00 00 	add    $0x80,%rsp
    731f:	48 83 c4 08          	add    $0x8,%rsp
    7323:	5b                   	pop    %rbx
    7324:	5d                   	pop    %rbp
    7325:	41 5c                	pop    %r12
    7327:	41 5d                	pop    %r13
    7329:	41 5e                	pop    %r14
    732b:	41 5f                	pop    %r15
    732d:	c3                   	retq   
    732e:	66 90                	xchg   %ax,%ax

0000000000007330 <__find_in_stack_list>:
    7330:	48 89 fa             	mov    %rdi,%rdx
    7333:	be 01 00 00 00       	mov    $0x1,%esi
    7338:	31 c0                	xor    %eax,%eax
    733a:	f0 0f b1 35 06 70 21 	lock cmpxchg %esi,0x217006(%rip)        # 21e348 <stack_cache_lock>
    7341:	00 
    7342:	74 1a                	je     735e <__find_in_stack_list+0x2e>
    7344:	48 8d 3d fd 6f 21 00 	lea    0x216ffd(%rip),%rdi        # 21e348 <stack_cache_lock>
    734b:	48 81 ec 80 00 00 00 	sub    $0x80,%rsp
    7352:	e8 79 9d 00 00       	callq  110d0 <__lll_lock_wait_private>
    7357:	48 81 c4 80 00 00 00 	add    $0x80,%rsp
    735e:	48 8b 05 4b 2f 21 00 	mov    0x212f4b(%rip),%rax        # 21a2b0 <stack_used>
    7365:	48 8d 35 44 2f 21 00 	lea    0x212f44(%rip),%rsi        # 21a2b0 <stack_used>
    736c:	48 39 f0             	cmp    %rsi,%rax
    736f:	75 0f                	jne    7380 <__find_in_stack_list+0x50>
    7371:	eb 4d                	jmp    73c0 <__find_in_stack_list+0x90>
    7373:	0f 1f 44 00 00       	nopl   0x0(%rax,%rax,1)
    7378:	48 8b 00             	mov    (%rax),%rax
    737b:	48 39 f0             	cmp    %rsi,%rax
    737e:	74 40                	je     73c0 <__find_in_stack_list+0x90>
    7380:	48 8d 88 40 fd ff ff 	lea    -0x2c0(%rax),%rcx
    7387:	48 39 ca             	cmp    %rcx,%rdx
    738a:	75 ec                	jne    7378 <__find_in_stack_list+0x48>
    738c:	48 85 d2             	test   %rdx,%rdx
    738f:	74 2f                	je     73c0 <__find_in_stack_list+0x90>
    7391:	f0 ff 0d b0 6f 21 00 	lock decl 0x216fb0(%rip)        # 21e348 <stack_cache_lock>
    7398:	74 1a                	je     73b4 <__find_in_stack_list+0x84>
    739a:	48 8d 3d a7 6f 21 00 	lea    0x216fa7(%rip),%rdi        # 21e348 <stack_cache_lock>
    73a1:	48 81 ec 80 00 00 00 	sub    $0x80,%rsp
    73a8:	e8 d3 9d 00 00       	callq  11180 <__lll_unlock_wake_private>
    73ad:	48 81 c4 80 00 00 00 	add    $0x80,%rsp
    73b4:	48 89 d0             	mov    %rdx,%rax
    73b7:	c3                   	retq   
    73b8:	0f 1f 84 00 00 00 00 	nopl   0x0(%rax,%rax,1)
    73bf:	00 
    73c0:	48 8b 05 69 6f 21 00 	mov    0x216f69(%rip),%rax        # 21e330 <__GI___stack_user>
    73c7:	48 8d 35 62 6f 21 00 	lea    0x216f62(%rip),%rsi        # 21e330 <__GI___stack_user>
    73ce:	48 39 f0             	cmp    %rsi,%rax
    73d1:	74 19                	je     73ec <__find_in_stack_list+0xbc>
    73d3:	0f 1f 44 00 00       	nopl   0x0(%rax,%rax,1)
    73d8:	48 8d 88 40 fd ff ff 	lea    -0x2c0(%rax),%rcx
    73df:	48 39 ca             	cmp    %rcx,%rdx
    73e2:	74 ad                	je     7391 <__find_in_stack_list+0x61>
    73e4:	48 8b 00             	mov    (%rax),%rax
    73e7:	48 39 f0             	cmp    %rsi,%rax
    73ea:	75 ec                	jne    73d8 <__find_in_stack_list+0xa8>
    73ec:	31 d2                	xor    %edx,%edx
    73ee:	eb a1                	jmp    7391 <__find_in_stack_list+0x61>

00000000000073f0 <__nptl_deallocate_tsd>:
    73f0:	31 c0                	xor    %eax,%eax
    73f2:	64 8a 04 25 10 06 00 	mov    %fs:0x610,%al
    73f9:	00 
    73fa:	84 c0                	test   %al,%al
    73fc:	74 0a                	je     7408 <__nptl_deallocate_tsd+0x18>
    73fe:	e9 6d ef ff ff       	jmpq   6370 <__nptl_deallocate_tsd.part.5>
    7403:	0f 1f 44 00 00       	nopl   0x0(%rax,%rax,1)
    7408:	f3 c3                	repz retq 
    740a:	66 0f 1f 44 00 00    	nopw   0x0(%rax,%rax,1)

0000000000007410 <__free_tcb>:
    7410:	f0 0f ba af 08 03 00 	lock btsl $0x5,0x308(%rdi)
    7417:	00 05 
    7419:	0f 92 c0             	setb   %al
    741c:	84 c0                	test   %al,%al
    741e:	0f 85 0c 01 00 00    	jne    7530 <__free_tcb+0x120>
    7424:	41 54                	push   %r12
    7426:	55                   	push   %rbp
    7427:	53                   	push   %rbx
    7428:	48 89 fb             	mov    %rdi,%rbx
    742b:	48 8b bf b0 06 00 00 	mov    0x6b0(%rdi),%rdi
    7432:	48 85 ff             	test   %rdi,%rdi
    7435:	0f 85 fd 00 00 00    	jne    7538 <__free_tcb+0x128>
    743b:	be 01 00 00 00       	mov    $0x1,%esi
    7440:	31 c0                	xor    %eax,%eax
    7442:	f0 0f b1 35 fe 6e 21 	lock cmpxchg %esi,0x216efe(%rip)        # 21e348 <stack_cache_lock>
    7449:	00 
    744a:	74 1a                	je     7466 <__free_tcb+0x56>
    744c:	48 8d 3d f5 6e 21 00 	lea    0x216ef5(%rip),%rdi        # 21e348 <stack_cache_lock>
    7453:	48 81 ec 80 00 00 00 	sub    $0x80,%rsp
    745a:	e8 71 9c 00 00       	callq  110d0 <__lll_lock_wait_private>
    745f:	48 81 c4 80 00 00 00 	add    $0x80,%rsp
    7466:	48 8d 83 c0 02 00 00 	lea    0x2c0(%rbx),%rax
    746d:	48 89 05 cc 6e 21 00 	mov    %rax,0x216ecc(%rip)        # 21e340 <in_flight_stack>
    7474:	48 8b 8b c8 02 00 00 	mov    0x2c8(%rbx),%rcx
    747b:	48 8b 93 c0 02 00 00 	mov    0x2c0(%rbx),%rdx
    7482:	48 89 4a 08          	mov    %rcx,0x8(%rdx)
    7486:	48 8b 8b c8 02 00 00 	mov    0x2c8(%rbx),%rcx
    748d:	48 89 11             	mov    %rdx,(%rcx)
    7490:	80 bb 12 06 00 00 00 	cmpb   $0x0,0x612(%rbx)
    7497:	48 c7 05 9e 6e 21 00 	movq   $0x0,0x216e9e(%rip)        # 21e340 <in_flight_stack>
    749e:	00 00 00 00 
    74a2:	0f 85 a8 00 00 00    	jne    7550 <__free_tcb+0x140>
    74a8:	48 89 c2             	mov    %rax,%rdx
    74ab:	48 83 ca 01          	or     $0x1,%rdx
    74af:	48 89 15 8a 6e 21 00 	mov    %rdx,0x216e8a(%rip)        # 21e340 <in_flight_stack>
    74b6:	48 8b 15 03 2e 21 00 	mov    0x212e03(%rip),%rdx        # 21a2c0 <stack_cache>
    74bd:	4c 8d 25 fc 2d 21 00 	lea    0x212dfc(%rip),%r12        # 21a2c0 <stack_cache>
    74c4:	4c 89 a3 c8 02 00 00 	mov    %r12,0x2c8(%rbx)
    74cb:	48 89 93 c0 02 00 00 	mov    %rdx,0x2c0(%rbx)
    74d2:	48 89 42 08          	mov    %rax,0x8(%rdx)
    74d6:	48 89 05 e3 2d 21 00 	mov    %rax,0x212de3(%rip)        # 21a2c0 <stack_cache>
    74dd:	48 8b 05 6c 6e 21 00 	mov    0x216e6c(%rip),%rax        # 21e350 <stack_cache_actsize>
    74e4:	48 03 83 98 06 00 00 	add    0x698(%rbx),%rax
    74eb:	48 c7 05 4a 6e 21 00 	movq   $0x0,0x216e4a(%rip)        # 21e340 <in_flight_stack>
    74f2:	00 00 00 00 
    74f6:	48 3d 00 00 80 02    	cmp    $0x2800000,%rax
    74fc:	48 89 05 4d 6e 21 00 	mov    %rax,0x216e4d(%rip)        # 21e350 <stack_cache_actsize>
    7503:	77 5b                	ja     7560 <__free_tcb+0x150>
    7505:	f0 ff 0d 3c 6e 21 00 	lock decl 0x216e3c(%rip)        # 21e348 <stack_cache_lock>
    750c:	74 1a                	je     7528 <__free_tcb+0x118>
    750e:	48 8d 3d 33 6e 21 00 	lea    0x216e33(%rip),%rdi        # 21e348 <stack_cache_lock>
    7515:	48 81 ec 80 00 00 00 	sub    $0x80,%rsp
    751c:	e8 5f 9c 00 00       	callq  11180 <__lll_unlock_wake_private>
    7521:	48 81 c4 80 00 00 00 	add    $0x80,%rsp
    7528:	5b                   	pop    %rbx
    7529:	5d                   	pop    %rbp
    752a:	41 5c                	pop    %r12
    752c:	c3                   	retq   
    752d:	0f 1f 00             	nopl   (%rax)
    7530:	f3 c3                	repz retq 
    7532:	66 0f 1f 44 00 00    	nopw   0x0(%rax,%rax,1)
    7538:	48 c7 83 b0 06 00 00 	movq   $0x0,0x6b0(%rbx)
    753f:	00 00 00 00 
    7543:	e8 78 e1 ff ff       	callq  56c0 <free@plt>
    7548:	e9 ee fe ff ff       	jmpq   743b <__free_tcb+0x2b>
    754d:	0f 1f 00             	nopl   (%rax)
    7550:	31 f6                	xor    %esi,%esi
    7552:	48 89 df             	mov    %rbx,%rdi
    7555:	e8 46 e3 ff ff       	callq  58a0 <_dl_deallocate_tls@plt>
    755a:	eb a9                	jmp    7505 <__free_tcb+0xf5>
    755c:	0f 1f 40 00          	nopl   0x0(%rax)
    7560:	48 8b 1d 61 2d 21 00 	mov    0x212d61(%rip),%rbx        # 21a2c8 <stack_cache+0x8>
    7567:	4c 39 e3             	cmp    %r12,%rbx
    756a:	48 8b 6b 08          	mov    0x8(%rbx),%rbp
    756e:	75 1b                	jne    758b <__free_tcb+0x17b>
    7570:	eb 93                	jmp    7505 <__free_tcb+0xf5>
    7572:	66 0f 1f 44 00 00    	nopw   0x0(%rax,%rax,1)
    7578:	4c 39 e5             	cmp    %r12,%rbp
    757b:	48 8b 45 08          	mov    0x8(%rbp),%rax
    757f:	48 89 eb             	mov    %rbp,%rbx
    7582:	0f 84 7d ff ff ff    	je     7505 <__free_tcb+0xf5>
    7588:	48 89 c5             	mov    %rax,%rbp
    758b:	8b 43 10             	mov    0x10(%rbx),%eax
    758e:	85 c0                	test   %eax,%eax
    7590:	7f e6                	jg     7578 <__free_tcb+0x168>
    7592:	48 89 1d a7 6d 21 00 	mov    %rbx,0x216da7(%rip)        # 21e340 <in_flight_stack>
    7599:	48 8b 53 08          	mov    0x8(%rbx),%rdx
    759d:	48 8b 03             	mov    (%rbx),%rax
    75a0:	48 89 50 08          	mov    %rdx,0x8(%rax)
    75a4:	48 8b 53 08          	mov    0x8(%rbx),%rdx
    75a8:	48 89 02             	mov    %rax,(%rdx)
    75ab:	48 8d bb 40 fd ff ff 	lea    -0x2c0(%rbx),%rdi
    75b2:	31 f6                	xor    %esi,%esi
    75b4:	48 8b 83 d8 03 00 00 	mov    0x3d8(%rbx),%rax
    75bb:	48 c7 05 7a 6d 21 00 	movq   $0x0,0x216d7a(%rip)        # 21e340 <in_flight_stack>
    75c2:	00 00 00 00 
    75c6:	48 29 05 83 6d 21 00 	sub    %rax,0x216d83(%rip)        # 21e350 <stack_cache_actsize>
    75cd:	e8 ce e2 ff ff       	callq  58a0 <_dl_deallocate_tls@plt>
    75d2:	48 8b b3 d8 03 00 00 	mov    0x3d8(%rbx),%rsi
    75d9:	48 8b bb d0 03 00 00 	mov    0x3d0(%rbx),%rdi
    75e0:	e8 3b e2 ff ff       	callq  5820 <__munmap@plt>
    75e5:	85 c0                	test   %eax,%eax
    75e7:	75 12                	jne    75fb <__free_tcb+0x1eb>
    75e9:	48 81 3d 5c 6d 21 00 	cmpq   $0x2800000,0x216d5c(%rip)        # 21e350 <stack_cache_actsize>
    75f0:	00 00 80 02 
    75f4:	77 82                	ja     7578 <__free_tcb+0x168>
    75f6:	e9 0a ff ff ff       	jmpq   7505 <__free_tcb+0xf5>
    75fb:	e8 e0 e0 ff ff       	callq  56e0 <abort@plt>

0000000000007600 <start_thread>:
    7600:	41 56                	push   %r14
    7602:	53                   	push   %rbx
    7603:	48 89 fb             	mov    %rdi,%rbx
    7606:	48 81 ec a8 00 00 00 	sub    $0xa8,%rsp
    760d:	48 89 7c 24 08       	mov    %rdi,0x8(%rsp)
    7612:	64 48 8b 04 25 28 00 	mov    %fs:0x28,%rax
    7619:	00 00 
    761b:	48 89 84 24 98 00 00 	mov    %rax,0x98(%rsp)
    7622:	00 
    7623:	31 c0                	xor    %eax,%eax
    7625:	0f 31                	rdtsc  
    7627:	48 c1 e2 20          	shl    $0x20,%rdx
    762b:	89 c0                	mov    %eax,%eax
    762d:	48 09 c2             	or     %rax,%rdx
    7630:	64 48 89 14 25 20 06 	mov    %rdx,%fs:0x620
    7637:	00 00 
    7639:	48 8b 05 68 29 21 00 	mov    0x212968(%rip),%rax        # 219fa8 <__resp@GLIBC_PRIVATE>
    7640:	48 8d 97 b8 06 00 00 	lea    0x6b8(%rdi),%rdx
    7647:	64 48 89 10          	mov    %rdx,%fs:(%rax)
    764b:	e8 c0 e3 ff ff       	callq  5a10 <__ctype_init@plt>
    7650:	31 c0                	xor    %eax,%eax
    7652:	87 83 1c 06 00 00    	xchg   %eax,0x61c(%rbx)
    7658:	83 f8 fe             	cmp    $0xfffffffe,%eax
    765b:	0f 84 6b 01 00 00    	je     77cc <start_thread+0x1cc>
    7661:	48 8b 5c 24 08       	mov    0x8(%rsp),%rbx
    7666:	be 18 00 00 00       	mov    $0x18,%esi
    766b:	b8 11 01 00 00       	mov    $0x111,%eax
    7670:	48 8d bb e0 02 00 00 	lea    0x2e0(%rbx),%rdi
    7677:	0f 05                	syscall 
    7679:	f6 83 14 06 00 00 04 	testb  $0x4,0x614(%rbx)
    7680:	0f 85 12 01 00 00    	jne    7798 <start_thread+0x198>
    7686:	48 8d 7c 24 10       	lea    0x10(%rsp),%rdi
    768b:	48 c7 44 24 58 00 00 	movq   $0x0,0x58(%rsp)
    7692:	00 00 
    7694:	48 c7 44 24 60 00 00 	movq   $0x0,0x60(%rsp)
    769b:	00 00 
    769d:	e8 2e e2 ff ff       	callq  58d0 <_setjmp@plt>
    76a2:	85 c0                	test   %eax,%eax
    76a4:	89 c3                	mov    %eax,%ebx
    76a6:	75 3c                	jne    76e4 <start_thread+0xe4>
    76a8:	48 8d 44 24 10       	lea    0x10(%rsp),%rax
    76ad:	64 48 89 04 25 00 03 	mov    %rax,%fs:0x300
    76b4:	00 00 
    76b6:	48 8b 44 24 08       	mov    0x8(%rsp),%rax
    76bb:	80 b8 13 06 00 00 00 	cmpb   $0x0,0x613(%rax)
    76c2:	0f 85 58 01 00 00    	jne    7820 <start_thread+0x220>
    76c8:	48 8b 44 24 08       	mov    0x8(%rsp),%rax
    76cd:	90                   	nop
    76ce:	48 8b b8 48 06 00 00 	mov    0x648(%rax),%rdi
    76d5:	ff 90 40 06 00 00    	callq  *0x640(%rax)
    76db:	64 48 89 04 25 30 06 	mov    %rax,%fs:0x630
    76e2:	00 00 
    76e4:	e8 c7 e1 ff ff       	callq  58b0 <__call_tls_dtors@plt>
    76e9:	31 c0                	xor    %eax,%eax
    76eb:	64 8a 04 25 10 06 00 	mov    %fs:0x610,%al
    76f2:	00 
    76f3:	84 c0                	test   %al,%al
    76f5:	0f 85 1b 01 00 00    	jne    7816 <start_thread+0x216>
    76fb:	e8 30 e2 ff ff       	callq  5930 <__libc_thread_freeres@plt>
    7700:	f0 ff 0d a1 2b 21 00 	lock decl 0x212ba1(%rip)        # 21a2a8 <__nptl_nthreads>
    7707:	0f 94 c0             	sete   %al
    770a:	84 c0                	test   %al,%al
    770c:	0f 85 da 01 00 00    	jne    78ec <start_thread+0x2ec>
    7712:	48 8b 44 24 08       	mov    0x8(%rsp),%rax
    7717:	80 b8 11 06 00 00 00 	cmpb   $0x0,0x611(%rax)
    771e:	0f 85 9a 01 00 00    	jne    78be <start_thread+0x2be>
    7724:	4c 8b 74 24 08       	mov    0x8(%rsp),%r14
    7729:	f0 41 83 8e 08 03 00 	lock orl $0x10,0x308(%r14)
    7730:	00 10 
    7732:	49 8b 9e 90 06 00 00 	mov    0x690(%r14),%rbx
    7739:	e8 92 e2 ff ff       	callq  59d0 <__getpagesize@plt>
    773e:	48 89 e2             	mov    %rsp,%rdx
    7741:	f7 d8                	neg    %eax
    7743:	48 29 da             	sub    %rbx,%rdx
    7746:	48 98                	cltq   
    7748:	48 21 d0             	and    %rdx,%rax
    774b:	49 39 86 98 06 00 00 	cmp    %rax,0x698(%r14)
    7752:	0f 86 2e 01 00 00    	jbe    7886 <start_thread+0x286>
    7758:	48 3d 00 40 00 00    	cmp    $0x4000,%rax
    775e:	0f 87 41 01 00 00    	ja     78a5 <start_thread+0x2a5>
    7764:	48 8b 44 24 08       	mov    0x8(%rsp),%rax
    7769:	48 39 80 28 06 00 00 	cmp    %rax,0x628(%rax)
    7770:	0f 84 12 02 00 00    	je     7988 <start_thread+0x388>
    7776:	48 8b 44 24 08       	mov    0x8(%rsp),%rax
    777b:	f6 80 08 03 00 00 40 	testb  $0x40,0x308(%rax)
    7782:	0f 85 9f 01 00 00    	jne    7927 <start_thread+0x327>
    7788:	ba 3c 00 00 00       	mov    $0x3c,%edx
    778d:	0f 1f 00             	nopl   (%rax)
    7790:	31 ff                	xor    %edi,%edi
    7792:	89 d0                	mov    %edx,%eax
    7794:	0f 05                	syscall 
    7796:	eb f8                	jmp    7790 <start_thread+0x190>
    7798:	48 8d 74 24 10       	lea    0x10(%rsp),%rsi
    779d:	31 c0                	xor    %eax,%eax
    779f:	b9 20 00 00 00       	mov    $0x20,%ecx
    77a4:	41 ba 08 00 00 00    	mov    $0x8,%r10d
    77aa:	31 d2                	xor    %edx,%edx
    77ac:	48 89 f7             	mov    %rsi,%rdi
    77af:	f3 ab                	rep stos %eax,%es:(%rdi)
    77b1:	b8 00 00 00 80       	mov    $0x80000000,%eax
    77b6:	bf 01 00 00 00       	mov    $0x1,%edi
    77bb:	48 09 44 24 10       	or     %rax,0x10(%rsp)
    77c0:	b8 0e 00 00 00       	mov    $0xe,%eax
    77c5:	0f 05                	syscall 
    77c7:	e9 ba fe ff ff       	jmpq   7686 <start_thread+0x86>
    77cc:	48 8b 44 24 08       	mov    0x8(%rsp),%rax
    77d1:	45 31 d2             	xor    %r10d,%r10d
    77d4:	ba 01 00 00 00       	mov    $0x1,%edx
    77d9:	be 81 00 00 00       	mov    $0x81,%esi
    77de:	48 8d b8 1c 06 00 00 	lea    0x61c(%rax),%rdi
    77e5:	b8 ca 00 00 00       	mov    $0xca,%eax
    77ea:	0f 05                	syscall 
    77ec:	48 3d 00 f0 ff ff    	cmp    $0xfffffffffffff000,%rax
    77f2:	0f 86 69 fe ff ff    	jbe    7661 <start_thread+0x61>
    77f8:	83 f8 ea             	cmp    $0xffffffea,%eax
    77fb:	0f 84 60 fe ff ff    	je     7661 <start_thread+0x61>
    7801:	83 f8 f2             	cmp    $0xfffffff2,%eax
    7804:	0f 84 57 fe ff ff    	je     7661 <start_thread+0x61>
    780a:	48 8d 3d 8f c9 00 00 	lea    0xc98f(%rip),%rdi        # 141a0 <_fini+0x1c>
    7811:	e8 1a df ff ff       	callq  5730 <__libc_fatal@plt>
    7816:	e8 55 eb ff ff       	callq  6370 <__nptl_deallocate_tsd.part.5>
    781b:	e9 db fe ff ff       	jmpq   76fb <start_thread+0xfb>
    7820:	e8 eb 97 00 00       	callq  11010 <__pthread_enable_asynccancel>
    7825:	be 01 00 00 00       	mov    $0x1,%esi
    782a:	89 c2                	mov    %eax,%edx
    782c:	89 d8                	mov    %ebx,%eax
    782e:	48 8b 5c 24 08       	mov    0x8(%rsp),%rbx
    7833:	f0 0f b1 b3 18 06 00 	lock cmpxchg %esi,0x618(%rbx)
    783a:	00 
    783b:	74 1a                	je     7857 <start_thread+0x257>
    783d:	48 8d bb 18 06 00 00 	lea    0x618(%rbx),%rdi
    7844:	48 81 ec 80 00 00 00 	sub    $0x80,%rsp
    784b:	e8 80 98 00 00       	callq  110d0 <__lll_lock_wait_private>
    7850:	48 81 c4 80 00 00 00 	add    $0x80,%rsp
    7857:	f0 ff 8b 18 06 00 00 	lock decl 0x618(%rbx)
    785e:	74 1a                	je     787a <start_thread+0x27a>
    7860:	48 8d bb 18 06 00 00 	lea    0x618(%rbx),%rdi
    7867:	48 81 ec 80 00 00 00 	sub    $0x80,%rsp
    786e:	e8 0d 99 00 00       	callq  11180 <__lll_unlock_wake_private>
    7873:	48 81 c4 80 00 00 00 	add    $0x80,%rsp
    787a:	89 d7                	mov    %edx,%edi
    787c:	e8 ef 97 00 00       	callq  11070 <__pthread_disable_asynccancel>
    7881:	e9 42 fe ff ff       	jmpq   76c8 <start_thread+0xc8>
    7886:	48 8d 0d 73 cb 00 00 	lea    0xcb73(%rip),%rcx        # 14400 <__PRETTY_FUNCTION__.12601>
    788d:	48 8d 35 a3 ca 00 00 	lea    0xcaa3(%rip),%rsi        # 14337 <__PRETTY_FUNCTION__.12610+0xf>
    7894:	48 8d 3d c2 ca 00 00 	lea    0xcac2(%rip),%rdi        # 1435d <__PRETTY_FUNCTION__.12610+0x35>
    789b:	ba 80 01 00 00       	mov    $0x180,%edx
    78a0:	e8 9b df ff ff       	callq  5840 <__assert_fail@plt>
    78a5:	48 8d b0 00 c0 ff ff 	lea    -0x4000(%rax),%rsi
    78ac:	ba 04 00 00 00       	mov    $0x4,%edx
    78b1:	48 89 df             	mov    %rbx,%rdi
    78b4:	e8 c7 e1 ff ff       	callq  5a80 <__madvise@plt>
    78b9:	e9 a6 fe ff ff       	jmpq   7764 <start_thread+0x164>
    78be:	48 8b 4c 24 08       	mov    0x8(%rsp),%rcx
    78c3:	8b 05 97 6a 21 00    	mov    0x216a97(%rip),%eax        # 21e360 <__nptl_threads_events>
    78c9:	0b 81 50 06 00 00    	or     0x650(%rcx),%eax
    78cf:	f6 c4 01             	test   $0x1,%ah
    78d2:	0f 84 4c fe ff ff    	je     7724 <start_thread+0x124>
    78d8:	48 83 b9 68 06 00 00 	cmpq   $0x0,0x668(%rcx)
    78df:	00 
    78e0:	74 11                	je     78f3 <start_thread+0x2f3>
    78e2:	e8 39 e9 ff ff       	callq  6220 <__GI___nptl_death_event>
    78e7:	e9 38 fe ff ff       	jmpq   7724 <start_thread+0x124>
    78ec:	31 ff                	xor    %edi,%edi
    78ee:	e8 3d e2 ff ff       	callq  5b30 <exit@plt>
    78f3:	48 89 c8             	mov    %rcx,%rax
    78f6:	c7 81 58 06 00 00 09 	movl   $0x9,0x658(%rcx)
    78fd:	00 00 00 
    7900:	48 89 88 60 06 00 00 	mov    %rcx,0x660(%rax)
    7907:	48 8b 05 4a 6a 21 00 	mov    0x216a4a(%rip),%rax        # 21e358 <__nptl_last_event>
    790e:	48 8b 4c 24 08       	mov    0x8(%rsp),%rcx
    7913:	48 89 81 68 06 00 00 	mov    %rax,0x668(%rcx)
    791a:	f0 48 0f b1 0d 35 6a 	lock cmpxchg %rcx,0x216a35(%rip)        # 21e358 <__nptl_last_event>
    7921:	21 00 
    7923:	74 bd                	je     78e2 <start_thread+0x2e2>
    7925:	eb e0                	jmp    7907 <start_thread+0x307>
    7927:	48 8d 98 1c 06 00 00 	lea    0x61c(%rax),%rbx
    792e:	41 b9 ca 00 00 00    	mov    $0xca,%r9d
    7934:	41 b8 01 00 00 00    	mov    $0x1,%r8d
    793a:	eb 0e                	jmp    794a <start_thread+0x34a>
    793c:	48 8b 44 24 08       	mov    0x8(%rsp),%rax
    7941:	f6 80 08 03 00 00 40 	testb  $0x40,0x308(%rax)
    7948:	74 4d                	je     7997 <start_thread+0x397>
    794a:	45 31 d2             	xor    %r10d,%r10d
    794d:	31 d2                	xor    %edx,%edx
    794f:	be 80 00 00 00       	mov    $0x80,%esi
    7954:	48 89 df             	mov    %rbx,%rdi
    7957:	44 89 c8             	mov    %r9d,%eax
    795a:	0f 05                	syscall 
    795c:	48 3d 00 f0 ff ff    	cmp    $0xfffffffffffff000,%rax
    7962:	76 d8                	jbe    793c <start_thread+0x33c>
    7964:	83 c0 0b             	add    $0xb,%eax
    7967:	83 f8 0b             	cmp    $0xb,%eax
    796a:	0f 87 9a fe ff ff    	ja     780a <start_thread+0x20a>
    7970:	89 c1                	mov    %eax,%ecx
    7972:	4c 89 c6             	mov    %r8,%rsi
    7975:	48 d3 e6             	shl    %cl,%rsi
    7978:	48 89 f0             	mov    %rsi,%rax
    797b:	a9 81 08 00 00       	test   $0x881,%eax
    7980:	0f 84 84 fe ff ff    	je     780a <start_thread+0x20a>
    7986:	eb b4                	jmp    793c <start_thread+0x33c>
    7988:	48 8b 7c 24 08       	mov    0x8(%rsp),%rdi
    798d:	e8 7e fa ff ff       	callq  7410 <__free_tcb>
    7992:	e9 f1 fd ff ff       	jmpq   7788 <start_thread+0x188>
    7997:	c7 80 1c 06 00 00 00 	movl   $0x0,0x61c(%rax)
    799e:	00 00 00 
    79a1:	e9 e2 fd ff ff       	jmpq   7788 <start_thread+0x188>
    79a6:	66 2e 0f 1f 84 00 00 	nopw   %cs:0x0(%rax,%rax,1)
    79ad:	00 00 00 

00000000000079b0 <pthread_create@@GLIBC_2.2.5>:
    79b0:	55                   	push   %rbp
    79b1:	48 89 e5             	mov    %rsp,%rbp
    79b4:	41 57                	push   %r15
    79b6:	41 56                	push   %r14
    79b8:	41 55                	push   %r13
    79ba:	41 54                	push   %r12
    79bc:	49 89 f5             	mov    %rsi,%r13
    79bf:	53                   	push   %rbx
    79c0:	49 89 ce             	mov    %rcx,%r14
    79c3:	48 81 ec 98 00 00 00 	sub    $0x98,%rsp
    79ca:	48 89 bd 78 ff ff ff 	mov    %rdi,-0x88(%rbp)
    79d1:	48 89 55 88          	mov    %rdx,-0x78(%rbp)
    79d5:	64 48 8b 04 25 28 00 	mov    %fs:0x28,%rax
    79dc:	00 00 
    79de:	48 89 45 c8          	mov    %rax,-0x38(%rbp)
    79e2:	31 c0                	xor    %eax,%eax
    79e4:	48 85 f6             	test   %rsi,%rsi
    79e7:	0f 84 e3 05 00 00    	je     7fd0 <pthread_create@@GLIBC_2.2.5+0x620>
    79ed:	49 89 f7             	mov    %rsi,%r15
    79f0:	c6 45 87 00          	movb   $0x0,-0x79(%rbp)
    79f4:	e8 d7 df ff ff       	callq  59d0 <__getpagesize@plt>
    79f9:	8d 50 ff             	lea    -0x1(%rax),%edx
    79fc:	89 c3                	mov    %eax,%ebx
    79fe:	48 63 d2             	movslq %edx,%rdx
    7a01:	4c 8d 4a 01          	lea    0x1(%rdx),%r9
    7a05:	49 89 d0             	mov    %rdx,%r8
    7a08:	4d 21 c8             	and    %r9,%r8
    7a0b:	0f 85 c8 0f 00 00    	jne    89d9 <pthread_create@@GLIBC_2.2.5+0x1029>
    7a11:	49 8b 77 20          	mov    0x20(%r15),%rsi
    7a15:	48 85 f6             	test   %rsi,%rsi
    7a18:	0f 85 4a 05 00 00    	jne    7f68 <pthread_create@@GLIBC_2.2.5+0x5b8>
    7a1e:	be 01 00 00 00       	mov    $0x1,%esi
    7a23:	31 c0                	xor    %eax,%eax
    7a25:	f0 0f b1 35 f3 68 21 	lock cmpxchg %esi,0x2168f3(%rip)        # 21e320 <__default_pthread_attr_lock>
    7a2c:	00 
    7a2d:	74 1a                	je     7a49 <pthread_create@@GLIBC_2.2.5+0x99>
    7a2f:	48 8d 3d ea 68 21 00 	lea    0x2168ea(%rip),%rdi        # 21e320 <__default_pthread_attr_lock>
    7a36:	48 81 ec 80 00 00 00 	sub    $0x80,%rsp
    7a3d:	e8 8e 96 00 00       	callq  110d0 <__lll_lock_wait_private>
    7a42:	48 81 c4 80 00 00 00 	add    $0x80,%rsp
    7a49:	48 8b 35 f0 69 21 00 	mov    0x2169f0(%rip),%rsi        # 21e440 <__default_pthread_attr+0x20>
    7a50:	f0 ff 0d c9 68 21 00 	lock decl 0x2168c9(%rip)        # 21e320 <__default_pthread_attr_lock>
    7a57:	74 1a                	je     7a73 <pthread_create@@GLIBC_2.2.5+0xc3>
    7a59:	48 8d 3d c0 68 21 00 	lea    0x2168c0(%rip),%rdi        # 21e320 <__default_pthread_attr_lock>
    7a60:	48 81 ec 80 00 00 00 	sub    $0x80,%rsp
    7a67:	e8 14 97 00 00       	callq  11180 <__lll_unlock_wake_private>
    7a6c:	48 81 c4 80 00 00 00 	add    $0x80,%rsp
    7a73:	41 f6 47 08 08       	testb  $0x8,0x8(%r15)
    7a78:	0f 85 da 0b 00 00    	jne    8658 <pthread_create@@GLIBC_2.2.5+0xca8>
    7a7e:	48 8b 05 53 69 21 00 	mov    0x216953(%rip),%rax        # 21e3d8 <__static_tls_align_m1>
    7a85:	48 f7 d0             	not    %rax
    7a88:	48 21 c6             	and    %rax,%rsi
    7a8b:	0f 84 29 0f 00 00    	je     89ba <pthread_create@@GLIBC_2.2.5+0x100a>
    7a91:	49 8b 47 10          	mov    0x10(%r15),%rax
    7a95:	f7 db                	neg    %ebx
    7a97:	48 63 db             	movslq %ebx,%rbx
    7a9a:	4c 8d 24 02          	lea    (%rdx,%rax,1),%r12
    7a9e:	49 21 dc             	and    %rbx,%r12
    7aa1:	4c 39 e0             	cmp    %r12,%rax
    7aa4:	0f 87 ee 04 00 00    	ja     7f98 <pthread_create@@GLIBC_2.2.5+0x5e8>
    7aaa:	48 89 f7             	mov    %rsi,%rdi
    7aad:	4c 01 e7             	add    %r12,%rdi
    7ab0:	0f 82 e2 04 00 00    	jb     7f98 <pthread_create@@GLIBC_2.2.5+0x5e8>
    7ab6:	48 8b 05 2b 69 21 00 	mov    0x21692b(%rip),%rax        # 21e3e8 <__static_tls_size>
    7abd:	48 89 bd 70 ff ff ff 	mov    %rdi,-0x90(%rbp)
    7ac4:	48 8d 84 02 00 08 00 	lea    0x800(%rdx,%rax,1),%rax
    7acb:	00 
    7acc:	4c 01 e0             	add    %r12,%rax
    7acf:	48 21 c3             	and    %rax,%rbx
    7ad2:	48 39 df             	cmp    %rbx,%rdi
    7ad5:	0f 82 bd 04 00 00    	jb     7f98 <pthread_create@@GLIBC_2.2.5+0x5e8>
    7adb:	48 8b 05 f6 24 21 00 	mov    0x2124f6(%rip),%rax        # 219fd8 <_rtld_global@GLIBC_PRIVATE>
    7ae2:	be 01 00 00 00       	mov    $0x1,%esi
    7ae7:	8b 80 18 0f 00 00    	mov    0xf18(%rax),%eax
    7aed:	89 85 68 ff ff ff    	mov    %eax,-0x98(%rbp)
    7af3:	c1 e0 02             	shl    $0x2,%eax
    7af6:	83 e0 04             	and    $0x4,%eax
    7af9:	41 89 c2             	mov    %eax,%r10d
    7afc:	83 c8 03             	or     $0x3,%eax
    7aff:	89 45 80             	mov    %eax,-0x80(%rbp)
    7b02:	31 c0                	xor    %eax,%eax
    7b04:	f0 0f b1 35 3c 68 21 	lock cmpxchg %esi,0x21683c(%rip)        # 21e348 <stack_cache_lock>
    7b0b:	00 
    7b0c:	74 1a                	je     7b28 <pthread_create@@GLIBC_2.2.5+0x178>
    7b0e:	48 8d 3d 33 68 21 00 	lea    0x216833(%rip),%rdi        # 21e348 <stack_cache_lock>
    7b15:	48 81 ec 80 00 00 00 	sub    $0x80,%rsp
    7b1c:	e8 af 95 00 00       	callq  110d0 <__lll_lock_wait_private>
    7b21:	48 81 c4 80 00 00 00 	add    $0x80,%rsp
    7b28:	48 8b 05 91 27 21 00 	mov    0x212791(%rip),%rax        # 21a2c0 <stack_cache>
    7b2f:	48 8d 15 8a 27 21 00 	lea    0x21278a(%rip),%rdx        # 21a2c0 <stack_cache>
    7b36:	48 39 d0             	cmp    %rdx,%rax
    7b39:	0f 84 71 05 00 00    	je     80b0 <pthread_create@@GLIBC_2.2.5+0x700>
    7b3f:	31 db                	xor    %ebx,%ebx
    7b41:	48 8b bd 70 ff ff ff 	mov    -0x90(%rbp),%rdi
    7b48:	eb 0e                	jmp    7b58 <pthread_create@@GLIBC_2.2.5+0x1a8>
    7b4a:	66 0f 1f 44 00 00    	nopw   0x0(%rax,%rax,1)
    7b50:	48 8b 00             	mov    (%rax),%rax
    7b53:	48 39 d0             	cmp    %rdx,%rax
    7b56:	74 48                	je     7ba0 <pthread_create@@GLIBC_2.2.5+0x1f0>
    7b58:	44 8b 58 10          	mov    0x10(%rax),%r11d
    7b5c:	45 85 db             	test   %r11d,%r11d
    7b5f:	7f ef                	jg     7b50 <pthread_create@@GLIBC_2.2.5+0x1a0>
    7b61:	48 8b 88 d8 03 00 00 	mov    0x3d8(%rax),%rcx
    7b68:	48 39 cf             	cmp    %rcx,%rdi
    7b6b:	77 e3                	ja     7b50 <pthread_create@@GLIBC_2.2.5+0x1a0>
    7b6d:	48 39 cf             	cmp    %rcx,%rdi
    7b70:	48 8d b0 40 fd ff ff 	lea    -0x2c0(%rax),%rsi
    7b77:	0f 84 6b 0c 00 00    	je     87e8 <pthread_create@@GLIBC_2.2.5+0xe38>
    7b7d:	48 85 db             	test   %rbx,%rbx
    7b80:	0f 84 f2 07 00 00    	je     8378 <pthread_create@@GLIBC_2.2.5+0x9c8>
    7b86:	48 3b 8b 98 06 00 00 	cmp    0x698(%rbx),%rcx
    7b8d:	48 8b 00             	mov    (%rax),%rax
    7b90:	48 0f 42 de          	cmovb  %rsi,%rbx
    7b94:	48 39 d0             	cmp    %rdx,%rax
    7b97:	75 bf                	jne    7b58 <pthread_create@@GLIBC_2.2.5+0x1a8>
    7b99:	0f 1f 80 00 00 00 00 	nopl   0x0(%rax)
    7ba0:	48 85 db             	test   %rbx,%rbx
    7ba3:	0f 84 07 05 00 00    	je     80b0 <pthread_create@@GLIBC_2.2.5+0x700>
    7ba9:	48 8b 85 70 ff ff ff 	mov    -0x90(%rbp),%rax
    7bb0:	48 c1 e0 02          	shl    $0x2,%rax
    7bb4:	48 39 83 98 06 00 00 	cmp    %rax,0x698(%rbx)
    7bbb:	0f 87 ef 04 00 00    	ja     80b0 <pthread_create@@GLIBC_2.2.5+0x700>
    7bc1:	48 8d b3 c0 02 00 00 	lea    0x2c0(%rbx),%rsi
    7bc8:	c7 83 1c 06 00 00 ff 	movl   $0xffffffff,0x61c(%rbx)
    7bcf:	ff ff ff 
    7bd2:	48 89 b5 48 ff ff ff 	mov    %rsi,-0xb8(%rbp)
    7bd9:	48 89 35 60 67 21 00 	mov    %rsi,0x216760(%rip)        # 21e340 <in_flight_stack>
    7be0:	48 8b 93 c8 02 00 00 	mov    0x2c8(%rbx),%rdx
    7be7:	48 8b 83 c0 02 00 00 	mov    0x2c0(%rbx),%rax
    7bee:	48 89 50 08          	mov    %rdx,0x8(%rax)
    7bf2:	48 8b 93 c8 02 00 00 	mov    0x2c8(%rbx),%rdx
    7bf9:	48 89 02             	mov    %rax,(%rdx)
    7bfc:	48 89 f0             	mov    %rsi,%rax
    7bff:	48 83 c8 01          	or     $0x1,%rax
    7c03:	48 89 05 36 67 21 00 	mov    %rax,0x216736(%rip)        # 21e340 <in_flight_stack>
    7c0a:	48 8b 05 9f 26 21 00 	mov    0x21269f(%rip),%rax        # 21a2b0 <stack_used>
    7c11:	48 8d 3d 98 26 21 00 	lea    0x212698(%rip),%rdi        # 21a2b0 <stack_used>
    7c18:	48 89 bb c8 02 00 00 	mov    %rdi,0x2c8(%rbx)
    7c1f:	48 89 83 c0 02 00 00 	mov    %rax,0x2c0(%rbx)
    7c26:	48 89 70 08          	mov    %rsi,0x8(%rax)
    7c2a:	48 89 35 7f 26 21 00 	mov    %rsi,0x21267f(%rip)        # 21a2b0 <stack_used>
    7c31:	48 c7 05 04 67 21 00 	movq   $0x0,0x216704(%rip)        # 21e340 <in_flight_stack>
    7c38:	00 00 00 00 
    7c3c:	48 8b 83 98 06 00 00 	mov    0x698(%rbx),%rax
    7c43:	48 29 05 06 67 21 00 	sub    %rax,0x216706(%rip)        # 21e350 <stack_cache_actsize>
    7c4a:	f0 ff 0d f7 66 21 00 	lock decl 0x2166f7(%rip)        # 21e348 <stack_cache_lock>
    7c51:	74 1a                	je     7c6d <pthread_create@@GLIBC_2.2.5+0x2bd>
    7c53:	48 8d 3d ee 66 21 00 	lea    0x2166ee(%rip),%rdi        # 21e348 <stack_cache_lock>
    7c5a:	48 81 ec 80 00 00 00 	sub    $0x80,%rsp
    7c61:	e8 1a 95 00 00       	callq  11180 <__lll_unlock_wake_private>
    7c66:	48 81 c4 80 00 00 00 	add    $0x80,%rsp
    7c6d:	48 8b 4b 08          	mov    0x8(%rbx),%rcx
    7c71:	48 8b 83 98 06 00 00 	mov    0x698(%rbx),%rax
    7c78:	c7 83 08 03 00 00 00 	movl   $0x0,0x308(%rbx)
    7c7f:	00 00 00 
    7c82:	48 c7 83 f8 02 00 00 	movq   $0x0,0x2f8(%rbx)
    7c89:	00 00 00 00 
    7c8d:	48 83 79 f0 00       	cmpq   $0x0,-0x10(%rcx)
    7c92:	48 89 85 68 ff ff ff 	mov    %rax,-0x98(%rbp)
    7c99:	48 8b 83 90 06 00 00 	mov    0x690(%rbx),%rax
    7ca0:	48 c7 83 68 06 00 00 	movq   $0x0,0x668(%rbx)
    7ca7:	00 00 00 00 
    7cab:	48 89 85 60 ff ff ff 	mov    %rax,-0xa0(%rbp)
    7cb2:	0f 84 38 0b 00 00    	je     87f0 <pthread_create@@GLIBC_2.2.5+0xe40>
    7cb8:	4c 89 a5 58 ff ff ff 	mov    %r12,-0xa8(%rbp)
    7cbf:	48 89 9d 50 ff ff ff 	mov    %rbx,-0xb0(%rbp)
    7cc6:	4d 89 c4             	mov    %r8,%r12
    7cc9:	48 89 cb             	mov    %rcx,%rbx
    7ccc:	0f 1f 40 00          	nopl   0x0(%rax)
    7cd0:	49 83 c4 01          	add    $0x1,%r12
    7cd4:	4c 89 e0             	mov    %r12,%rax
    7cd7:	48 c1 e0 04          	shl    $0x4,%rax
    7cdb:	48 8b 7c 03 08       	mov    0x8(%rbx,%rax,1),%rdi
    7ce0:	e8 db d9 ff ff       	callq  56c0 <free@plt>
    7ce5:	48 8b 43 f0          	mov    -0x10(%rbx),%rax
    7ce9:	49 39 c4             	cmp    %rax,%r12
    7cec:	72 e2                	jb     7cd0 <pthread_create@@GLIBC_2.2.5+0x320>
    7cee:	48 89 d9             	mov    %rbx,%rcx
    7cf1:	48 8d 50 01          	lea    0x1(%rax),%rdx
    7cf5:	4c 8b a5 58 ff ff ff 	mov    -0xa8(%rbp),%r12
    7cfc:	48 8b 9d 50 ff ff ff 	mov    -0xb0(%rbp),%rbx
    7d03:	48 c1 e2 04          	shl    $0x4,%rdx
    7d07:	48 89 cf             	mov    %rcx,%rdi
    7d0a:	31 f6                	xor    %esi,%esi
    7d0c:	e8 3f db ff ff       	callq  5850 <memset@plt>
    7d11:	48 89 df             	mov    %rbx,%rdi
    7d14:	e8 47 de ff ff       	callq  5b60 <_dl_allocate_tls_init@plt>
    7d19:	48 8b b3 a0 06 00 00 	mov    0x6a0(%rbx),%rsi
    7d20:	49 39 f4             	cmp    %rsi,%r12
    7d23:	0f 87 07 0b 00 00    	ja     8830 <pthread_create@@GLIBC_2.2.5+0xe80>
    7d29:	48 8b 85 68 ff ff ff 	mov    -0x98(%rbp),%rax
    7d30:	48 2b 85 70 ff ff ff 	sub    -0x90(%rbp),%rax
    7d37:	4c 29 e6             	sub    %r12,%rsi
    7d3a:	48 39 c6             	cmp    %rax,%rsi
    7d3d:	0f 87 98 0b 00 00    	ja     88db <pthread_create@@GLIBC_2.2.5+0xf2b>
    7d43:	4c 89 a3 a8 06 00 00 	mov    %r12,0x6a8(%rbx)
    7d4a:	48 8d 83 e0 02 00 00 	lea    0x2e0(%rbx),%rax
    7d51:	41 8b 77 08          	mov    0x8(%r15),%esi
    7d55:	c7 83 18 06 00 00 00 	movl   $0x0,0x618(%rbx)
    7d5c:	00 00 00 
    7d5f:	64 48 8b 14 25 10 00 	mov    %fs:0x10,%rdx
    7d66:	00 00 
    7d68:	48 89 83 d8 02 00 00 	mov    %rax,0x2d8(%rbx)
    7d6f:	48 89 83 e0 02 00 00 	mov    %rax,0x2e0(%rbx)
    7d76:	48 89 d8             	mov    %rbx,%rax
    7d79:	48 2b 05 68 66 21 00 	sub    0x216668(%rip),%rax        # 21e3e8 <__static_tls_size>
    7d80:	89 f1                	mov    %esi,%ecx
    7d82:	48 c7 83 e8 02 00 00 	movq   $0xffffffffffffffe0,0x2e8(%rbx)
    7d89:	e0 ff ff ff 
    7d8d:	83 e1 9f             	and    $0xffffff9f,%ecx
    7d90:	66 0f 6f 82 50 06 00 	movdqa 0x650(%rdx),%xmm0
    7d97:	00 
    7d98:	48 c7 83 f0 02 00 00 	movq   $0x0,0x2f0(%rbx)
    7d9f:	00 00 00 00 
    7da3:	48 89 5b 10          	mov    %rbx,0x10(%rbx)
    7da7:	48 89 1b             	mov    %rbx,(%rbx)
    7daa:	4c 89 b3 48 06 00 00 	mov    %r14,0x648(%rbx)
    7db1:	4c 8d a0 00 09 00 00 	lea    0x900(%rax),%r12
    7db8:	48 8b 45 88          	mov    -0x78(%rbp),%rax
    7dbc:	48 89 83 40 06 00 00 	mov    %rax,0x640(%rbx)
    7dc3:	8b 82 0c 03 00 00    	mov    0x30c(%rdx),%eax
    7dc9:	0f 29 83 50 06 00 00 	movaps %xmm0,0x650(%rbx)
    7dd0:	83 e0 60             	and    $0x60,%eax
    7dd3:	09 c8                	or     %ecx,%eax
    7dd5:	40 f6 c6 01          	test   $0x1,%sil
    7dd9:	b9 00 00 00 00       	mov    $0x0,%ecx
    7dde:	48 0f 45 cb          	cmovne %rbx,%rcx
    7de2:	89 83 0c 03 00 00    	mov    %eax,0x30c(%rbx)
    7de8:	48 89 8b 28 06 00 00 	mov    %rcx,0x628(%rbx)
    7def:	48 8b 8a 60 06 00 00 	mov    0x660(%rdx),%rcx
    7df6:	48 89 8b 60 06 00 00 	mov    %rcx,0x660(%rbx)
    7dfd:	8b 8a 3c 06 00 00    	mov    0x63c(%rdx),%ecx
    7e03:	8b 92 38 06 00 00    	mov    0x638(%rdx),%edx
    7e09:	89 8b 3c 06 00 00    	mov    %ecx,0x63c(%rbx)
    7e0f:	89 93 38 06 00 00    	mov    %edx,0x638(%rbx)
    7e15:	64 48 8b 14 25 28 00 	mov    %fs:0x28,%rdx
    7e1c:	00 00 
    7e1e:	48 89 53 28          	mov    %rdx,0x28(%rbx)
    7e22:	64 48 8b 14 25 30 00 	mov    %fs:0x30,%rdx
    7e29:	00 00 
    7e2b:	48 89 53 30          	mov    %rdx,0x30(%rbx)
    7e2f:	64 8b 14 25 08 03 00 	mov    %fs:0x308,%edx
    7e36:	00 
    7e37:	40 f6 c6 02          	test   $0x2,%sil
    7e3b:	89 93 14 06 00 00    	mov    %edx,0x614(%rbx)
    7e41:	0f 85 f1 06 00 00    	jne    8538 <pthread_create@@GLIBC_2.2.5+0xb88>
    7e47:	83 3d 5a 24 21 00 01 	cmpl   $0x1,0x21245a(%rip)        # 21a2a8 <__nptl_nthreads>
    7e4e:	0f 84 d4 06 00 00    	je     8528 <pthread_create@@GLIBC_2.2.5+0xb78>
    7e54:	48 8b 85 78 ff ff ff 	mov    -0x88(%rbp),%rax
    7e5b:	48 89 18             	mov    %rbx,(%rax)
    7e5e:	90                   	nop
    7e5f:	f0 ff 05 42 24 21 00 	lock incl 0x212442(%rip)        # 21a2a8 <__nptl_nthreads>
    7e66:	31 c0                	xor    %eax,%eax
    7e68:	89 c7                	mov    %eax,%edi
    7e6a:	64 40 8a 3c 25 11 06 	mov    %fs:0x611,%dil
    7e71:	00 00 
    7e73:	40 84 ff             	test   %dil,%dil
    7e76:	4c 8d 83 d0 02 00 00 	lea    0x2d0(%rbx),%r8
    7e7d:	0f 85 5d 05 00 00    	jne    83e0 <pthread_create@@GLIBC_2.2.5+0xa30>
    7e83:	49 83 7f 28 00       	cmpq   $0x0,0x28(%r15)
    7e88:	0f 85 f2 04 00 00    	jne    8380 <pthread_create@@GLIBC_2.2.5+0x9d0>
    7e8e:	41 f6 47 08 02       	testb  $0x2,0x8(%r15)
    7e93:	0f 85 e7 04 00 00    	jne    8380 <pthread_create@@GLIBC_2.2.5+0x9d0>
    7e99:	c6 83 13 06 00 00 00 	movb   $0x0,0x613(%rbx)
    7ea0:	45 31 ed             	xor    %r13d,%r13d
    7ea3:	48 83 ec 08          	sub    $0x8,%rsp
    7ea7:	48 8d 3d 52 f7 ff ff 	lea    -0x8ae(%rip),%rdi        # 7600 <start_thread>
    7eae:	48 89 d9             	mov    %rbx,%rcx
    7eb1:	41 50                	push   %r8
    7eb3:	ba 00 0f 3d 00       	mov    $0x3d0f00,%edx
    7eb8:	31 c0                	xor    %eax,%eax
    7eba:	49 89 d9             	mov    %rbx,%r9
    7ebd:	4c 89 e6             	mov    %r12,%rsi
    7ec0:	e8 eb d7 ff ff       	callq  56b0 <__clone@plt>
    7ec5:	83 f8 ff             	cmp    $0xffffffff,%eax
    7ec8:	5a                   	pop    %rdx
    7ec9:	59                   	pop    %rcx
    7eca:	0f 84 00 07 00 00    	je     85d0 <pthread_create@@GLIBC_2.2.5+0xc20>
    7ed0:	49 8b 57 28          	mov    0x28(%r15),%rdx
    7ed4:	48 85 d2             	test   %rdx,%rdx
    7ed7:	0f 84 7b 04 00 00    	je     8358 <pthread_create@@GLIBC_2.2.5+0x9a8>
    7edd:	45 84 ed             	test   %r13b,%r13b
    7ee0:	0f 84 b0 0a 00 00    	je     8996 <pthread_create@@GLIBC_2.2.5+0xfe6>
    7ee6:	49 8b 77 30          	mov    0x30(%r15),%rsi
    7eea:	8b bb d0 02 00 00    	mov    0x2d0(%rbx),%edi
    7ef0:	b8 cb 00 00 00       	mov    $0xcb,%eax
    7ef5:	0f 05                	syscall 
    7ef7:	3d 00 f0 ff ff       	cmp    $0xfffff000,%eax
    7efc:	0f 87 16 07 00 00    	ja     8618 <pthread_create@@GLIBC_2.2.5+0xc68>
    7f02:	41 f6 47 08 02       	testb  $0x2,0x8(%r15)
    7f07:	74 25                	je     7f2e <pthread_create@@GLIBC_2.2.5+0x57e>
    7f09:	8b b3 3c 06 00 00    	mov    0x63c(%rbx),%esi
    7f0f:	8b bb d0 02 00 00    	mov    0x2d0(%rbx),%edi
    7f15:	48 8d 93 38 06 00 00 	lea    0x638(%rbx),%rdx
    7f1c:	b8 90 00 00 00       	mov    $0x90,%eax
    7f21:	0f 05                	syscall 
    7f23:	3d 00 f0 ff ff       	cmp    $0xfffff000,%eax
    7f28:	0f 87 ea 06 00 00    	ja     8618 <pthread_create@@GLIBC_2.2.5+0xc68>
    7f2e:	f0 ff 8b 18 06 00 00 	lock decl 0x618(%rbx)
    7f35:	74 1a                	je     7f51 <pthread_create@@GLIBC_2.2.5+0x5a1>
    7f37:	48 8d bb 18 06 00 00 	lea    0x618(%rbx),%rdi
    7f3e:	48 81 ec 80 00 00 00 	sub    $0x80,%rsp
    7f45:	e8 36 92 00 00       	callq  11180 <__lll_unlock_wake_private>
    7f4a:	48 81 c4 80 00 00 00 	add    $0x80,%rsp
    7f51:	64 c7 04 25 18 00 00 	movl   $0x1,%fs:0x18
    7f58:	00 01 00 00 00 
    7f5d:	45 31 c0             	xor    %r8d,%r8d
    7f60:	eb 3c                	jmp    7f9e <pthread_create@@GLIBC_2.2.5+0x5ee>
    7f62:	66 0f 1f 44 00 00    	nopw   0x0(%rax,%rax,1)
    7f68:	41 f6 47 08 08       	testb  $0x8,0x8(%r15)
    7f6d:	0f 84 0b fb ff ff    	je     7a7e <pthread_create@@GLIBC_2.2.5+0xce>
    7f73:	49 8b 57 18          	mov    0x18(%r15),%rdx
    7f77:	48 89 f0             	mov    %rsi,%rax
    7f7a:	48 8b 3d 67 64 21 00 	mov    0x216467(%rip),%rdi        # 21e3e8 <__static_tls_size>
    7f81:	48 8d 8f 00 08 00 00 	lea    0x800(%rdi),%rcx
    7f88:	48 39 c8             	cmp    %rcx,%rax
    7f8b:	0f 83 d8 06 00 00    	jae    8669 <pthread_create@@GLIBC_2.2.5+0xcb9>
    7f91:	0f 1f 80 00 00 00 00 	nopl   0x0(%rax)
    7f98:	41 b8 16 00 00 00    	mov    $0x16,%r8d
    7f9e:	80 7d 87 00          	cmpb   $0x0,-0x79(%rbp)
    7fa2:	0f 85 18 04 00 00    	jne    83c0 <pthread_create@@GLIBC_2.2.5+0xa10>
    7fa8:	48 8b 4d c8          	mov    -0x38(%rbp),%rcx
    7fac:	64 48 33 0c 25 28 00 	xor    %fs:0x28,%rcx
    7fb3:	00 00 
    7fb5:	44 89 c0             	mov    %r8d,%eax
    7fb8:	0f 85 f7 09 00 00    	jne    89b5 <pthread_create@@GLIBC_2.2.5+0x1005>
    7fbe:	48 8d 65 d8          	lea    -0x28(%rbp),%rsp
    7fc2:	5b                   	pop    %rbx
    7fc3:	41 5c                	pop    %r12
    7fc5:	41 5d                	pop    %r13
    7fc7:	41 5e                	pop    %r14
    7fc9:	41 5f                	pop    %r15
    7fcb:	5d                   	pop    %rbp
    7fcc:	c3                   	retq   
    7fcd:	0f 1f 00             	nopl   (%rax)
    7fd0:	be 01 00 00 00       	mov    $0x1,%esi
    7fd5:	f0 0f b1 35 43 63 21 	lock cmpxchg %esi,0x216343(%rip)        # 21e320 <__default_pthread_attr_lock>
    7fdc:	00 
    7fdd:	74 1a                	je     7ff9 <pthread_create@@GLIBC_2.2.5+0x649>
    7fdf:	48 8d 3d 3a 63 21 00 	lea    0x21633a(%rip),%rdi        # 21e320 <__default_pthread_attr_lock>
    7fe6:	48 81 ec 80 00 00 00 	sub    $0x80,%rsp
    7fed:	e8 de 90 00 00       	callq  110d0 <__lll_lock_wait_private>
    7ff2:	48 81 c4 80 00 00 00 	add    $0x80,%rsp
    7ff9:	f3 0f 6f 05 1f 64 21 	movdqu 0x21641f(%rip),%xmm0        # 21e420 <__default_pthread_attr>
    8000:	00 
    8001:	48 8b 1d 48 64 21 00 	mov    0x216448(%rip),%rbx        # 21e450 <__default_pthread_attr+0x30>
    8008:	0f 29 45 90          	movaps %xmm0,-0x70(%rbp)
    800c:	48 85 db             	test   %rbx,%rbx
    800f:	f3 0f 6f 05 19 64 21 	movdqu 0x216419(%rip),%xmm0        # 21e430 <__default_pthread_attr+0x10>
    8016:	00 
    8017:	48 89 5d c0          	mov    %rbx,-0x40(%rbp)
    801b:	0f 29 45 a0          	movaps %xmm0,-0x60(%rbp)
    801f:	f3 0f 6f 05 19 64 21 	movdqu 0x216419(%rip),%xmm0        # 21e440 <__default_pthread_attr+0x20>
    8026:	00 
    8027:	0f 29 45 b0          	movaps %xmm0,-0x50(%rbp)
    802b:	74 73                	je     80a0 <pthread_create@@GLIBC_2.2.5+0x6f0>
    802d:	48 89 df             	mov    %rbx,%rdi
    8030:	e8 1b db ff ff       	callq  5b50 <__libc_alloca_cutoff@plt>
    8035:	85 c0                	test   %eax,%eax
    8037:	75 0d                	jne    8046 <pthread_create@@GLIBC_2.2.5+0x696>
    8039:	48 81 fb 00 10 00 00 	cmp    $0x1000,%rbx
    8040:	0f 87 82 07 00 00    	ja     87c8 <pthread_create@@GLIBC_2.2.5+0xe18>
    8046:	48 8d 43 1e          	lea    0x1e(%rbx),%rax
    804a:	c6 45 87 00          	movb   $0x0,-0x79(%rbp)
    804e:	48 83 e0 f0          	and    $0xfffffffffffffff0,%rax
    8052:	48 29 c4             	sub    %rax,%rsp
    8055:	48 8d 4c 24 0f       	lea    0xf(%rsp),%rcx
    805a:	48 83 e1 f0          	and    $0xfffffffffffffff0,%rcx
    805e:	48 8b 75 b8          	mov    -0x48(%rbp),%rsi
    8062:	48 89 da             	mov    %rbx,%rdx
    8065:	48 89 cf             	mov    %rcx,%rdi
    8068:	e8 e3 d8 ff ff       	callq  5950 <memcpy@plt>
    806d:	48 89 45 b8          	mov    %rax,-0x48(%rbp)
    8071:	f0 ff 0d a8 62 21 00 	lock decl 0x2162a8(%rip)        # 21e320 <__default_pthread_attr_lock>
    8078:	74 1a                	je     8094 <pthread_create@@GLIBC_2.2.5+0x6e4>
    807a:	48 8d 3d 9f 62 21 00 	lea    0x21629f(%rip),%rdi        # 21e320 <__default_pthread_attr_lock>
    8081:	48 81 ec 80 00 00 00 	sub    $0x80,%rsp
    8088:	e8 f3 90 00 00       	callq  11180 <__lll_unlock_wake_private>
    808d:	48 81 c4 80 00 00 00 	add    $0x80,%rsp
    8094:	4c 8d 7d 90          	lea    -0x70(%rbp),%r15
    8098:	e9 57 f9 ff ff       	jmpq   79f4 <pthread_create@@GLIBC_2.2.5+0x44>
    809d:	0f 1f 00             	nopl   (%rax)
    80a0:	c6 45 87 00          	movb   $0x0,-0x79(%rbp)
    80a4:	eb cb                	jmp    8071 <pthread_create@@GLIBC_2.2.5+0x6c1>
    80a6:	66 2e 0f 1f 84 00 00 	nopw   %cs:0x0(%rax,%rax,1)
    80ad:	00 00 00 
    80b0:	44 89 95 58 ff ff ff 	mov    %r10d,-0xa8(%rbp)
    80b7:	f0 ff 0d 8a 62 21 00 	lock decl 0x21628a(%rip)        # 21e348 <stack_cache_lock>
    80be:	74 1a                	je     80da <pthread_create@@GLIBC_2.2.5+0x72a>
    80c0:	48 8d 3d 81 62 21 00 	lea    0x216281(%rip),%rdi        # 21e348 <stack_cache_lock>
    80c7:	48 81 ec 80 00 00 00 	sub    $0x80,%rsp
    80ce:	e8 ad 90 00 00       	callq  11180 <__lll_unlock_wake_private>
    80d3:	48 81 c4 80 00 00 00 	add    $0x80,%rsp
    80da:	48 8b 85 70 ff ff ff 	mov    -0x90(%rbp),%rax
    80e1:	ba 00 00 00 00       	mov    $0x0,%edx
    80e6:	41 b8 ff ff ff ff    	mov    $0xffffffff,%r8d
    80ec:	b9 22 00 02 00       	mov    $0x20022,%ecx
    80f1:	49 01 c1             	add    %rax,%r9
    80f4:	66 85 c0             	test   %ax,%ax
    80f7:	4c 0f 45 c8          	cmovne %rax,%r9
    80fb:	4d 85 e4             	test   %r12,%r12
    80fe:	0f 44 55 80          	cmove  -0x80(%rbp),%edx
    8102:	4c 89 ce             	mov    %r9,%rsi
    8105:	4c 89 8d 68 ff ff ff 	mov    %r9,-0x98(%rbp)
    810c:	31 ff                	xor    %edi,%edi
    810e:	45 31 c9             	xor    %r9d,%r9d
    8111:	e8 7a d6 ff ff       	callq  5790 <__mmap@plt>
    8116:	48 83 f8 ff          	cmp    $0xffffffffffffffff,%rax
    811a:	48 89 85 60 ff ff ff 	mov    %rax,-0xa0(%rbp)
    8121:	44 8b 95 58 ff ff ff 	mov    -0xa8(%rbp),%r10d
    8128:	74 6c                	je     8196 <pthread_create@@GLIBC_2.2.5+0x7e6>
    812a:	48 83 bd 60 ff ff ff 	cmpq   $0x0,-0xa0(%rbp)
    8131:	00 
    8132:	0f 84 df 08 00 00    	je     8a17 <pthread_create@@GLIBC_2.2.5+0x1067>
    8138:	48 89 c1             	mov    %rax,%rcx
    813b:	48 8b 85 68 ff ff ff 	mov    -0x98(%rbp),%rax
    8142:	4d 85 e4             	test   %r12,%r12
    8145:	48 8d 9c 01 00 f7 ff 	lea    -0x900(%rcx,%rax,1),%rbx
    814c:	ff 
    814d:	74 71                	je     81c0 <pthread_create@@GLIBC_2.2.5+0x810>
    814f:	8b 55 80             	mov    -0x80(%rbp),%edx
    8152:	4c 29 e0             	sub    %r12,%rax
    8155:	4a 8d 3c 21          	lea    (%rcx,%r12,1),%rdi
    8159:	48 89 c6             	mov    %rax,%rsi
    815c:	44 89 95 58 ff ff ff 	mov    %r10d,-0xa8(%rbp)
    8163:	e8 f8 d7 ff ff       	callq  5960 <__mprotect@plt>
    8168:	85 c0                	test   %eax,%eax
    816a:	44 8b 95 58 ff ff ff 	mov    -0xa8(%rbp),%r10d
    8171:	74 4d                	je     81c0 <pthread_create@@GLIBC_2.2.5+0x810>
    8173:	48 8b 05 26 1e 21 00 	mov    0x211e26(%rip),%rax        # 219fa0 <errno@GLIBC_PRIVATE>
    817a:	64 44 8b 00          	mov    %fs:(%rax),%r8d
    817e:	45 85 c0             	test   %r8d,%r8d
    8181:	74 3d                	je     81c0 <pthread_create@@GLIBC_2.2.5+0x810>
    8183:	48 8b b5 68 ff ff ff 	mov    -0x98(%rbp),%rsi
    818a:	48 8b bd 60 ff ff ff 	mov    -0xa0(%rbp),%rdi
    8191:	e8 8a d6 ff ff       	callq  5820 <__munmap@plt>
    8196:	48 8b 05 03 1e 21 00 	mov    0x211e03(%rip),%rax        # 219fa0 <errno@GLIBC_PRIVATE>
    819d:	64 44 8b 00          	mov    %fs:(%rax),%r8d
    81a1:	45 85 c0             	test   %r8d,%r8d
    81a4:	0f 85 f6 02 00 00    	jne    84a0 <pthread_create@@GLIBC_2.2.5+0xaf0>
    81aa:	48 c7 04 25 10 00 00 	movq   $0x0,0x10
    81b1:	00 00 00 00 00 
    81b6:	0f 0b                	ud2    
    81b8:	0f 1f 84 00 00 00 00 	nopl   0x0(%rax,%rax,1)
    81bf:	00 
    81c0:	48 8b 85 60 ff ff ff 	mov    -0xa0(%rbp),%rax
    81c7:	4c 89 a3 a0 06 00 00 	mov    %r12,0x6a0(%rbx)
    81ce:	48 89 df             	mov    %rbx,%rdi
    81d1:	c7 43 18 01 00 00 00 	movl   $0x1,0x18(%rbx)
    81d8:	44 89 95 58 ff ff ff 	mov    %r10d,-0xa8(%rbp)
    81df:	48 89 83 90 06 00 00 	mov    %rax,0x690(%rbx)
    81e6:	48 8b 85 68 ff ff ff 	mov    -0x98(%rbp),%rax
    81ed:	48 89 83 98 06 00 00 	mov    %rax,0x698(%rbx)
    81f4:	48 8d 83 10 03 00 00 	lea    0x310(%rbx),%rax
    81fb:	48 89 83 10 05 00 00 	mov    %rax,0x510(%rbx)
    8202:	48 8b 05 d7 61 21 00 	mov    0x2161d7(%rip),%rax        # 21e3e0 <__libc_multiple_threads_ptr>
    8209:	c7 00 01 00 00 00    	movl   $0x1,(%rax)
    820f:	c7 83 1c 06 00 00 ff 	movl   $0xffffffff,0x61c(%rbx)
    8216:	ff ff ff 
    8219:	c7 05 dd 61 21 00 01 	movl   $0x1,0x2161dd(%rip)        # 21e400 <__pthread_multiple_threads>
    8220:	00 00 00 
    8223:	e8 98 d8 ff ff       	callq  5ac0 <_dl_allocate_tls@plt>
    8228:	48 85 c0             	test   %rax,%rax
    822b:	44 8b 95 58 ff ff ff 	mov    -0xa8(%rbp),%r10d
    8232:	0f 84 63 05 00 00    	je     879b <pthread_create@@GLIBC_2.2.5+0xdeb>
    8238:	be 01 00 00 00       	mov    $0x1,%esi
    823d:	31 c0                	xor    %eax,%eax
    823f:	f0 0f b1 35 01 61 21 	lock cmpxchg %esi,0x216101(%rip)        # 21e348 <stack_cache_lock>
    8246:	00 
    8247:	74 1a                	je     8263 <pthread_create@@GLIBC_2.2.5+0x8b3>
    8249:	48 8d 3d f8 60 21 00 	lea    0x2160f8(%rip),%rdi        # 21e348 <stack_cache_lock>
    8250:	48 81 ec 80 00 00 00 	sub    $0x80,%rsp
    8257:	e8 74 8e 00 00       	callq  110d0 <__lll_lock_wait_private>
    825c:	48 81 c4 80 00 00 00 	add    $0x80,%rsp
    8263:	48 8d 83 c0 02 00 00 	lea    0x2c0(%rbx),%rax
    826a:	48 89 c7             	mov    %rax,%rdi
    826d:	48 89 85 48 ff ff ff 	mov    %rax,-0xb8(%rbp)
    8274:	48 83 c8 01          	or     $0x1,%rax
    8278:	48 89 05 c1 60 21 00 	mov    %rax,0x2160c1(%rip)        # 21e340 <in_flight_stack>
    827f:	48 8b 05 2a 20 21 00 	mov    0x21202a(%rip),%rax        # 21a2b0 <stack_used>
    8286:	48 8d 0d 23 20 21 00 	lea    0x212023(%rip),%rcx        # 21a2b0 <stack_used>
    828d:	48 89 8b c8 02 00 00 	mov    %rcx,0x2c8(%rbx)
    8294:	48 89 83 c0 02 00 00 	mov    %rax,0x2c0(%rbx)
    829b:	48 89 78 08          	mov    %rdi,0x8(%rax)
    829f:	48 89 3d 0a 20 21 00 	mov    %rdi,0x21200a(%rip)        # 21a2b0 <stack_used>
    82a6:	48 c7 05 8f 60 21 00 	movq   $0x0,0x21608f(%rip)        # 21e340 <in_flight_stack>
    82ad:	00 00 00 00 
    82b1:	f0 ff 0d 90 60 21 00 	lock decl 0x216090(%rip)        # 21e348 <stack_cache_lock>
    82b8:	74 1a                	je     82d4 <pthread_create@@GLIBC_2.2.5+0x924>
    82ba:	48 8d 3d 87 60 21 00 	lea    0x216087(%rip),%rdi        # 21e348 <stack_cache_lock>
    82c1:	48 81 ec 80 00 00 00 	sub    $0x80,%rsp
    82c8:	e8 b3 8e 00 00       	callq  11180 <__lll_unlock_wake_private>
    82cd:	48 81 c4 80 00 00 00 	add    $0x80,%rsp
    82d4:	48 8b 05 fd 1c 21 00 	mov    0x211cfd(%rip),%rax        # 219fd8 <_rtld_global@GLIBC_PRIVATE>
    82db:	f6 80 18 0f 00 00 01 	testb  $0x1,0xf18(%rax)
    82e2:	0f 84 31 fa ff ff    	je     7d19 <pthread_create@@GLIBC_2.2.5+0x369>
    82e8:	45 85 d2             	test   %r10d,%r10d
    82eb:	0f 85 28 fa ff ff    	jne    7d19 <pthread_create@@GLIBC_2.2.5+0x369>
    82f1:	48 8b 83 a0 06 00 00 	mov    0x6a0(%rbx),%rax
    82f8:	48 8b b3 98 06 00 00 	mov    0x698(%rbx),%rsi
    82ff:	ba 07 00 00 00       	mov    $0x7,%edx
    8304:	48 29 c6             	sub    %rax,%rsi
    8307:	48 03 83 90 06 00 00 	add    0x690(%rbx),%rax
    830e:	48 89 c7             	mov    %rax,%rdi
    8311:	e8 4a d6 ff ff       	callq  5960 <__mprotect@plt>
    8316:	85 c0                	test   %eax,%eax
    8318:	0f 84 fb f9 ff ff    	je     7d19 <pthread_create@@GLIBC_2.2.5+0x369>
    831e:	48 8b 05 7b 1c 21 00 	mov    0x211c7b(%rip),%rax        # 219fa0 <errno@GLIBC_PRIVATE>
    8325:	64 44 8b 00          	mov    %fs:(%rax),%r8d
    8329:	45 85 c0             	test   %r8d,%r8d
    832c:	0f 84 e7 f9 ff ff    	je     7d19 <pthread_create@@GLIBC_2.2.5+0x369>
    8332:	48 8b b5 68 ff ff ff 	mov    -0x98(%rbp),%rsi
    8339:	48 8b bd 60 ff ff ff 	mov    -0xa0(%rbp),%rdi
    8340:	44 89 45 88          	mov    %r8d,-0x78(%rbp)
    8344:	e8 d7 d4 ff ff       	callq  5820 <__munmap@plt>
    8349:	44 8b 45 88          	mov    -0x78(%rbp),%r8d
    834d:	e9 4e 01 00 00       	jmpq   84a0 <pthread_create@@GLIBC_2.2.5+0xaf0>
    8352:	66 0f 1f 44 00 00    	nopw   0x0(%rax,%rax,1)
    8358:	41 f6 47 08 02       	testb  $0x2,0x8(%r15)
    835d:	0f 85 d3 06 00 00    	jne    8a36 <pthread_create@@GLIBC_2.2.5+0x1086>
    8363:	45 84 ed             	test   %r13b,%r13b
    8366:	0f 84 e5 fb ff ff    	je     7f51 <pthread_create@@GLIBC_2.2.5+0x5a1>
    836c:	e9 bd fb ff ff       	jmpq   7f2e <pthread_create@@GLIBC_2.2.5+0x57e>
    8371:	0f 1f 80 00 00 00 00 	nopl   0x0(%rax)
    8378:	48 89 f3             	mov    %rsi,%rbx
    837b:	e9 d0 f7 ff ff       	jmpq   7b50 <pthread_create@@GLIBC_2.2.5+0x1a0>
    8380:	c6 83 13 06 00 00 01 	movb   $0x1,0x613(%rbx)
    8387:	be 01 00 00 00       	mov    $0x1,%esi
    838c:	31 c0                	xor    %eax,%eax
    838e:	f0 0f b1 b3 18 06 00 	lock cmpxchg %esi,0x618(%rbx)
    8395:	00 
    8396:	74 1a                	je     83b2 <pthread_create@@GLIBC_2.2.5+0xa02>
    8398:	48 8d bb 18 06 00 00 	lea    0x618(%rbx),%rdi
    839f:	48 81 ec 80 00 00 00 	sub    $0x80,%rsp
    83a6:	e8 25 8d 00 00       	callq  110d0 <__lll_lock_wait_private>
    83ab:	48 81 c4 80 00 00 00 	add    $0x80,%rsp
    83b2:	41 bd 01 00 00 00    	mov    $0x1,%r13d
    83b8:	e9 e6 fa ff ff       	jmpq   7ea3 <pthread_create@@GLIBC_2.2.5+0x4f3>
    83bd:	0f 1f 00             	nopl   (%rax)
    83c0:	48 8b 7d b8          	mov    -0x48(%rbp),%rdi
    83c4:	44 89 45 88          	mov    %r8d,-0x78(%rbp)
    83c8:	e8 f3 d2 ff ff       	callq  56c0 <free@plt>
    83cd:	44 8b 45 88          	mov    -0x78(%rbp),%r8d
    83d1:	e9 d2 fb ff ff       	jmpq   7fa8 <pthread_create@@GLIBC_2.2.5+0x5f8>
    83d6:	66 2e 0f 1f 84 00 00 	nopw   %cs:0x0(%rax,%rax,1)
    83dd:	00 00 00 
    83e0:	8b 15 7a 5f 21 00    	mov    0x215f7a(%rip),%edx        # 21e360 <__nptl_threads_events>
    83e6:	0b 93 50 06 00 00    	or     0x650(%rbx),%edx
    83ec:	81 e2 80 00 00 00    	and    $0x80,%edx
    83f2:	0f 84 8b fa ff ff    	je     7e83 <pthread_create@@GLIBC_2.2.5+0x4d3>
    83f8:	c6 83 13 06 00 00 01 	movb   $0x1,0x613(%rbx)
    83ff:	be 01 00 00 00       	mov    $0x1,%esi
    8404:	f0 0f b1 b3 18 06 00 	lock cmpxchg %esi,0x618(%rbx)
    840b:	00 
    840c:	74 1a                	je     8428 <pthread_create@@GLIBC_2.2.5+0xa78>
    840e:	48 8d bb 18 06 00 00 	lea    0x618(%rbx),%rdi
    8415:	48 81 ec 80 00 00 00 	sub    $0x80,%rsp
    841c:	e8 af 8c 00 00       	callq  110d0 <__lll_lock_wait_private>
    8421:	48 81 c4 80 00 00 00 	add    $0x80,%rsp
    8428:	48 83 ec 08          	sub    $0x8,%rsp
    842c:	48 8d 3d cd f1 ff ff 	lea    -0xe33(%rip),%rdi        # 7600 <start_thread>
    8433:	4c 89 e6             	mov    %r12,%rsi
    8436:	41 50                	push   %r8
    8438:	31 c0                	xor    %eax,%eax
    843a:	49 89 d9             	mov    %rbx,%r9
    843d:	48 89 d9             	mov    %rbx,%rcx
    8440:	ba 00 0f 3d 00       	mov    $0x3d0f00,%edx
    8445:	e8 66 d2 ff ff       	callq  56b0 <__clone@plt>
    844a:	83 f8 ff             	cmp    $0xffffffff,%eax
    844d:	5e                   	pop    %rsi
    844e:	5f                   	pop    %rdi
    844f:	0f 84 ad 04 00 00    	je     8902 <pthread_create@@GLIBC_2.2.5+0xf52>
    8455:	49 8b 57 28          	mov    0x28(%r15),%rdx
    8459:	48 85 d2             	test   %rdx,%rdx
    845c:	74 5a                	je     84b8 <pthread_create@@GLIBC_2.2.5+0xb08>
    845e:	49 8b 77 30          	mov    0x30(%r15),%rsi
    8462:	8b bb d0 02 00 00    	mov    0x2d0(%rbx),%edi
    8468:	b8 cb 00 00 00       	mov    $0xcb,%eax
    846d:	0f 05                	syscall 
    846f:	3d 00 f0 ff ff       	cmp    $0xfffff000,%eax
    8474:	76 42                	jbe    84b8 <pthread_create@@GLIBC_2.2.5+0xb08>
    8476:	41 89 c4             	mov    %eax,%r12d
    8479:	e8 42 d3 ff ff       	callq  57c0 <__getpid@plt>
    847e:	8b b3 d0 02 00 00    	mov    0x2d0(%rbx),%esi
    8484:	89 c7                	mov    %eax,%edi
    8486:	ba 20 00 00 00       	mov    $0x20,%edx
    848b:	b8 ea 00 00 00       	mov    $0xea,%eax
    8490:	0f 05                	syscall 
    8492:	45 89 e0             	mov    %r12d,%r8d
    8495:	41 f7 d8             	neg    %r8d
    8498:	45 85 e4             	test   %r12d,%r12d
    849b:	74 43                	je     84e0 <pthread_create@@GLIBC_2.2.5+0xb30>
    849d:	0f 1f 00             	nopl   (%rax)
    84a0:	41 83 f8 0c          	cmp    $0xc,%r8d
    84a4:	0f 85 f4 fa ff ff    	jne    7f9e <pthread_create@@GLIBC_2.2.5+0x5ee>
    84aa:	41 b8 0b 00 00 00    	mov    $0xb,%r8d
    84b0:	e9 e9 fa ff ff       	jmpq   7f9e <pthread_create@@GLIBC_2.2.5+0x5ee>
    84b5:	0f 1f 00             	nopl   (%rax)
    84b8:	41 f6 47 08 02       	testb  $0x2,0x8(%r15)
    84bd:	74 21                	je     84e0 <pthread_create@@GLIBC_2.2.5+0xb30>
    84bf:	8b b3 3c 06 00 00    	mov    0x63c(%rbx),%esi
    84c5:	8b bb d0 02 00 00    	mov    0x2d0(%rbx),%edi
    84cb:	48 8d 93 38 06 00 00 	lea    0x638(%rbx),%rdx
    84d2:	b8 90 00 00 00       	mov    $0x90,%eax
    84d7:	0f 05                	syscall 
    84d9:	3d 00 f0 ff ff       	cmp    $0xfffff000,%eax
    84de:	77 96                	ja     8476 <pthread_create@@GLIBC_2.2.5+0xac6>
    84e0:	80 bb 13 06 00 00 00 	cmpb   $0x0,0x613(%rbx)
    84e7:	0f 84 71 05 00 00    	je     8a5e <pthread_create@@GLIBC_2.2.5+0x10ae>
    84ed:	c7 83 58 06 00 00 08 	movl   $0x8,0x658(%rbx)
    84f4:	00 00 00 
    84f7:	48 89 9b 60 06 00 00 	mov    %rbx,0x660(%rbx)
    84fe:	48 8b 05 53 5e 21 00 	mov    0x215e53(%rip),%rax        # 21e358 <__nptl_last_event>
    8505:	48 89 83 68 06 00 00 	mov    %rax,0x668(%rbx)
    850c:	f0 48 0f b1 1d 43 5e 	lock cmpxchg %rbx,0x215e43(%rip)        # 21e358 <__nptl_last_event>
    8513:	21 00 
    8515:	75 e7                	jne    84fe <pthread_create@@GLIBC_2.2.5+0xb4e>
    8517:	e8 f4 dc ff ff       	callq  6210 <__GI___nptl_create_event>
    851c:	e9 0d fa ff ff       	jmpq   7f2e <pthread_create@@GLIBC_2.2.5+0x57e>
    8521:	0f 1f 80 00 00 00 00 	nopl   0x0(%rax)
    8528:	e8 43 d3 ff ff       	callq  5870 <_IO_enable_locks@plt>
    852d:	e9 22 f9 ff ff       	jmpq   7e54 <pthread_create@@GLIBC_2.2.5+0x4a4>
    8532:	66 0f 1f 44 00 00    	nopw   0x0(%rax,%rax,1)
    8538:	40 f6 c6 60          	test   $0x60,%sil
    853c:	0f 84 05 f9 ff ff    	je     7e47 <pthread_create@@GLIBC_2.2.5+0x497>
    8542:	40 f6 c6 40          	test   $0x40,%sil
    8546:	74 13                	je     855b <pthread_create@@GLIBC_2.2.5+0xbab>
    8548:	41 8b 57 04          	mov    0x4(%r15),%edx
    854c:	83 c8 40             	or     $0x40,%eax
    854f:	89 83 0c 03 00 00    	mov    %eax,0x30c(%rbx)
    8555:	89 93 3c 06 00 00    	mov    %edx,0x63c(%rbx)
    855b:	83 e6 20             	and    $0x20,%esi
    855e:	74 12                	je     8572 <pthread_create@@GLIBC_2.2.5+0xbc2>
    8560:	41 8b 17             	mov    (%r15),%edx
    8563:	83 c8 20             	or     $0x20,%eax
    8566:	89 83 0c 03 00 00    	mov    %eax,0x30c(%rbx)
    856c:	89 93 38 06 00 00    	mov    %edx,0x638(%rbx)
    8572:	89 c2                	mov    %eax,%edx
    8574:	83 e2 60             	and    $0x60,%edx
    8577:	83 fa 60             	cmp    $0x60,%edx
    857a:	0f 84 c7 f8 ff ff    	je     7e47 <pthread_create@@GLIBC_2.2.5+0x497>
    8580:	a8 40                	test   $0x40,%al
    8582:	75 1e                	jne    85a2 <pthread_create@@GLIBC_2.2.5+0xbf2>
    8584:	31 ff                	xor    %edi,%edi
    8586:	b8 91 00 00 00       	mov    $0x91,%eax
    858b:	0f 05                	syscall 
    858d:	89 83 3c 06 00 00    	mov    %eax,0x63c(%rbx)
    8593:	8b 83 0c 03 00 00    	mov    0x30c(%rbx),%eax
    8599:	83 c8 40             	or     $0x40,%eax
    859c:	89 83 0c 03 00 00    	mov    %eax,0x30c(%rbx)
    85a2:	a8 20                	test   $0x20,%al
    85a4:	0f 85 9d f8 ff ff    	jne    7e47 <pthread_create@@GLIBC_2.2.5+0x497>
    85aa:	48 8d b3 38 06 00 00 	lea    0x638(%rbx),%rsi
    85b1:	31 ff                	xor    %edi,%edi
    85b3:	b8 8f 00 00 00       	mov    $0x8f,%eax
    85b8:	0f 05                	syscall 
    85ba:	83 8b 0c 03 00 00 20 	orl    $0x20,0x30c(%rbx)
    85c1:	e9 81 f8 ff ff       	jmpq   7e47 <pthread_create@@GLIBC_2.2.5+0x497>
    85c6:	66 2e 0f 1f 84 00 00 	nopw   %cs:0x0(%rax,%rax,1)
    85cd:	00 00 00 
    85d0:	48 8b 05 c9 19 21 00 	mov    0x2119c9(%rip),%rax        # 219fa0 <errno@GLIBC_PRIVATE>
    85d7:	64 44 8b 00          	mov    %fs:(%rax),%r8d
    85db:	45 85 c0             	test   %r8d,%r8d
    85de:	0f 84 7f fd ff ff    	je     8363 <pthread_create@@GLIBC_2.2.5+0x9b3>
    85e4:	f0 ff 0d bd 1c 21 00 	lock decl 0x211cbd(%rip)        # 21a2a8 <__nptl_nthreads>
    85eb:	31 c0                	xor    %eax,%eax
    85ed:	87 83 1c 06 00 00    	xchg   %eax,0x61c(%rbx)
    85f3:	83 f8 fe             	cmp    $0xfffffffe,%eax
    85f6:	0f 84 24 03 00 00    	je     8920 <pthread_create@@GLIBC_2.2.5+0xf70>
    85fc:	48 89 df             	mov    %rbx,%rdi
    85ff:	44 89 45 88          	mov    %r8d,-0x78(%rbp)
    8603:	e8 88 df ff ff       	callq  6590 <__deallocate_stack>
    8608:	44 8b 45 88          	mov    -0x78(%rbp),%r8d
    860c:	e9 8f fe ff ff       	jmpq   84a0 <pthread_create@@GLIBC_2.2.5+0xaf0>
    8611:	0f 1f 80 00 00 00 00 	nopl   0x0(%rax)
    8618:	41 89 c4             	mov    %eax,%r12d
    861b:	e8 a0 d1 ff ff       	callq  57c0 <__getpid@plt>
    8620:	8b b3 d0 02 00 00    	mov    0x2d0(%rbx),%esi
    8626:	89 c7                	mov    %eax,%edi
    8628:	ba 20 00 00 00       	mov    $0x20,%edx
    862d:	b8 ea 00 00 00       	mov    $0xea,%eax
    8632:	0f 05                	syscall 
    8634:	45 85 e4             	test   %r12d,%r12d
    8637:	0f 84 26 fd ff ff    	je     8363 <pthread_create@@GLIBC_2.2.5+0x9b3>
    863d:	45 84 ed             	test   %r13b,%r13b
    8640:	0f 84 b2 03 00 00    	je     89f8 <pthread_create@@GLIBC_2.2.5+0x1048>
    8646:	45 89 e0             	mov    %r12d,%r8d
    8649:	41 f7 d8             	neg    %r8d
    864c:	e9 4f fe ff ff       	jmpq   84a0 <pthread_create@@GLIBC_2.2.5+0xaf0>
    8651:	0f 1f 80 00 00 00 00 	nopl   0x0(%rax)
    8658:	49 8b 47 20          	mov    0x20(%r15),%rax
    865c:	49 8b 57 18          	mov    0x18(%r15),%rdx
    8660:	48 85 c0             	test   %rax,%rax
    8663:	0f 85 11 f9 ff ff    	jne    7f7a <pthread_create@@GLIBC_2.2.5+0x5ca>
    8669:	48 8b 05 68 5d 21 00 	mov    0x215d68(%rip),%rax        # 21e3d8 <__static_tls_align_m1>
    8670:	48 8d 9a 00 f7 ff ff 	lea    -0x900(%rdx),%rbx
    8677:	48 21 d8             	and    %rbx,%rax
    867a:	48 8d 88 00 09 00 00 	lea    0x900(%rax),%rcx
    8681:	48 39 f1             	cmp    %rsi,%rcx
    8684:	0f 83 12 04 00 00    	jae    8a9c <pthread_create@@GLIBC_2.2.5+0x10ec>
    868a:	48 29 c3             	sub    %rax,%rbx
    868d:	31 c0                	xor    %eax,%eax
    868f:	48 29 f2             	sub    %rsi,%rdx
    8692:	48 8d 7b 08          	lea    0x8(%rbx),%rdi
    8696:	48 89 d9             	mov    %rbx,%rcx
    8699:	48 c7 03 00 00 00 00 	movq   $0x0,(%rbx)
    86a0:	48 c7 83 f8 08 00 00 	movq   $0x0,0x8f8(%rbx)
    86a7:	00 00 00 00 
    86ab:	48 83 e7 f8          	and    $0xfffffffffffffff8,%rdi
    86af:	48 29 f9             	sub    %rdi,%rcx
    86b2:	81 c1 00 09 00 00    	add    $0x900,%ecx
    86b8:	c1 e9 03             	shr    $0x3,%ecx
    86bb:	f3 48 ab             	rep stos %rax,%es:(%rdi)
    86be:	48 8d 83 10 03 00 00 	lea    0x310(%rbx),%rax
    86c5:	48 89 93 90 06 00 00 	mov    %rdx,0x690(%rbx)
    86cc:	48 89 b3 98 06 00 00 	mov    %rsi,0x698(%rbx)
    86d3:	c6 83 12 06 00 00 01 	movb   $0x1,0x612(%rbx)
    86da:	c7 43 18 01 00 00 00 	movl   $0x1,0x18(%rbx)
    86e1:	48 89 df             	mov    %rbx,%rdi
    86e4:	48 89 83 10 05 00 00 	mov    %rax,0x510(%rbx)
    86eb:	48 8b 05 ee 5c 21 00 	mov    0x215cee(%rip),%rax        # 21e3e0 <__libc_multiple_threads_ptr>
    86f2:	c7 00 01 00 00 00    	movl   $0x1,(%rax)
    86f8:	c7 83 1c 06 00 00 ff 	movl   $0xffffffff,0x61c(%rbx)
    86ff:	ff ff ff 
    8702:	c7 05 f4 5c 21 00 01 	movl   $0x1,0x215cf4(%rip)        # 21e400 <__pthread_multiple_threads>
    8709:	00 00 00 
    870c:	e8 af d3 ff ff       	callq  5ac0 <_dl_allocate_tls@plt>
    8711:	48 85 c0             	test   %rax,%rax
    8714:	0f 84 e6 00 00 00    	je     8800 <pthread_create@@GLIBC_2.2.5+0xe50>
    871a:	be 01 00 00 00       	mov    $0x1,%esi
    871f:	31 c0                	xor    %eax,%eax
    8721:	f0 0f b1 35 1f 5c 21 	lock cmpxchg %esi,0x215c1f(%rip)        # 21e348 <stack_cache_lock>
    8728:	00 
    8729:	74 1a                	je     8745 <pthread_create@@GLIBC_2.2.5+0xd95>
    872b:	48 8d 3d 16 5c 21 00 	lea    0x215c16(%rip),%rdi        # 21e348 <stack_cache_lock>
    8732:	48 81 ec 80 00 00 00 	sub    $0x80,%rsp
    8739:	e8 92 89 00 00       	callq  110d0 <__lll_lock_wait_private>
    873e:	48 81 c4 80 00 00 00 	add    $0x80,%rsp
    8745:	48 8b 15 e4 5b 21 00 	mov    0x215be4(%rip),%rdx        # 21e330 <__GI___stack_user>
    874c:	48 8d 83 c0 02 00 00 	lea    0x2c0(%rbx),%rax
    8753:	48 8d 3d d6 5b 21 00 	lea    0x215bd6(%rip),%rdi        # 21e330 <__GI___stack_user>
    875a:	48 89 bb c8 02 00 00 	mov    %rdi,0x2c8(%rbx)
    8761:	48 89 93 c0 02 00 00 	mov    %rdx,0x2c0(%rbx)
    8768:	48 89 42 08          	mov    %rax,0x8(%rdx)
    876c:	48 89 05 bd 5b 21 00 	mov    %rax,0x215bbd(%rip)        # 21e330 <__GI___stack_user>
    8773:	f0 ff 0d ce 5b 21 00 	lock decl 0x215bce(%rip)        # 21e348 <stack_cache_lock>
    877a:	74 1a                	je     8796 <pthread_create@@GLIBC_2.2.5+0xde6>
    877c:	48 8d 3d c5 5b 21 00 	lea    0x215bc5(%rip),%rdi        # 21e348 <stack_cache_lock>
    8783:	48 81 ec 80 00 00 00 	sub    $0x80,%rsp
    878a:	e8 f1 89 00 00       	callq  11180 <__lll_unlock_wake_private>
    878f:	48 81 c4 80 00 00 00 	add    $0x80,%rsp
    8796:	e9 af f5 ff ff       	jmpq   7d4a <pthread_create@@GLIBC_2.2.5+0x39a>
    879b:	48 8b 1d fe 17 21 00 	mov    0x2117fe(%rip),%rbx        # 219fa0 <errno@GLIBC_PRIVATE>
    87a2:	64 83 3b 0c          	cmpl   $0xc,%fs:(%rbx)
    87a6:	0f 85 d1 02 00 00    	jne    8a7d <pthread_create@@GLIBC_2.2.5+0x10cd>
    87ac:	48 8b b5 68 ff ff ff 	mov    -0x98(%rbp),%rsi
    87b3:	48 8b bd 60 ff ff ff 	mov    -0xa0(%rbp),%rdi
    87ba:	e8 61 d0 ff ff       	callq  5820 <__munmap@plt>
    87bf:	64 44 8b 03          	mov    %fs:(%rbx),%r8d
    87c3:	e9 d9 f9 ff ff       	jmpq   81a1 <pthread_create@@GLIBC_2.2.5+0x7f1>
    87c8:	48 89 df             	mov    %rbx,%rdi
    87cb:	e8 10 d2 ff ff       	callq  59e0 <malloc@plt>
    87d0:	48 85 c0             	test   %rax,%rax
    87d3:	48 89 c1             	mov    %rax,%rcx
    87d6:	0f 84 8c 01 00 00    	je     8968 <pthread_create@@GLIBC_2.2.5+0xfb8>
    87dc:	c6 45 87 01          	movb   $0x1,-0x79(%rbp)
    87e0:	e9 79 f8 ff ff       	jmpq   805e <pthread_create@@GLIBC_2.2.5+0x6ae>
    87e5:	0f 1f 00             	nopl   (%rax)
    87e8:	48 89 f3             	mov    %rsi,%rbx
    87eb:	e9 b0 f3 ff ff       	jmpq   7ba0 <pthread_create@@GLIBC_2.2.5+0x1f0>
    87f0:	ba 10 00 00 00       	mov    $0x10,%edx
    87f5:	e9 0d f5 ff ff       	jmpq   7d07 <pthread_create@@GLIBC_2.2.5+0x357>
    87fa:	66 0f 1f 44 00 00    	nopw   0x0(%rax,%rax,1)
    8800:	48 8b 05 99 17 21 00 	mov    0x211799(%rip),%rax        # 219fa0 <errno@GLIBC_PRIVATE>
    8807:	64 83 38 0c          	cmpl   $0xc,%fs:(%rax)
    880b:	0f 84 99 fc ff ff    	je     84aa <pthread_create@@GLIBC_2.2.5+0xafa>
    8811:	48 8d 0d 10 bb 00 00 	lea    0xbb10(%rip),%rcx        # 14328 <__PRETTY_FUNCTION__.12610>
    8818:	48 8d 35 18 bb 00 00 	lea    0xbb18(%rip),%rsi        # 14337 <__PRETTY_FUNCTION__.12610+0xf>
    881f:	48 8d 3d 7c bb 00 00 	lea    0xbb7c(%rip),%rdi        # 143a2 <__PRETTY_FUNCTION__.12610+0x7a>
    8826:	ba fa 01 00 00       	mov    $0x1fa,%edx
    882b:	e8 10 d0 ff ff       	callq  5840 <__assert_fail@plt>
    8830:	48 8b bd 60 ff ff ff 	mov    -0xa0(%rbp),%rdi
    8837:	31 d2                	xor    %edx,%edx
    8839:	4c 89 e6             	mov    %r12,%rsi
    883c:	e8 1f d1 ff ff       	callq  5960 <__mprotect@plt>
    8841:	85 c0                	test   %eax,%eax
    8843:	0f 84 ad 00 00 00    	je     88f6 <pthread_create@@GLIBC_2.2.5+0xf46>
    8849:	be 01 00 00 00       	mov    $0x1,%esi
    884e:	31 c0                	xor    %eax,%eax
    8850:	f0 0f b1 35 f0 5a 21 	lock cmpxchg %esi,0x215af0(%rip)        # 21e348 <stack_cache_lock>
    8857:	00 
    8858:	74 1a                	je     8874 <pthread_create@@GLIBC_2.2.5+0xec4>
    885a:	48 8d 3d e7 5a 21 00 	lea    0x215ae7(%rip),%rdi        # 21e348 <stack_cache_lock>
    8861:	48 81 ec 80 00 00 00 	sub    $0x80,%rsp
    8868:	e8 63 88 00 00       	callq  110d0 <__lll_lock_wait_private>
    886d:	48 81 c4 80 00 00 00 	add    $0x80,%rsp
    8874:	48 8b 85 48 ff ff ff 	mov    -0xb8(%rbp),%rax
    887b:	48 89 05 be 5a 21 00 	mov    %rax,0x215abe(%rip)        # 21e340 <in_flight_stack>
    8882:	48 8b 93 c8 02 00 00 	mov    0x2c8(%rbx),%rdx
    8889:	48 8b 83 c0 02 00 00 	mov    0x2c0(%rbx),%rax
    8890:	48 89 50 08          	mov    %rdx,0x8(%rax)
    8894:	48 8b 93 c8 02 00 00 	mov    0x2c8(%rbx),%rdx
    889b:	48 89 02             	mov    %rax,(%rdx)
    889e:	48 c7 05 97 5a 21 00 	movq   $0x0,0x215a97(%rip)        # 21e340 <in_flight_stack>
    88a5:	00 00 00 00 
    88a9:	f0 ff 0d 98 5a 21 00 	lock decl 0x215a98(%rip)        # 21e348 <stack_cache_lock>
    88b0:	74 1a                	je     88cc <pthread_create@@GLIBC_2.2.5+0xf1c>
    88b2:	48 8d 3d 8f 5a 21 00 	lea    0x215a8f(%rip),%rdi        # 21e348 <stack_cache_lock>
    88b9:	48 81 ec 80 00 00 00 	sub    $0x80,%rsp
    88c0:	e8 bb 88 00 00       	callq  11180 <__lll_unlock_wake_private>
    88c5:	48 81 c4 80 00 00 00 	add    $0x80,%rsp
    88cc:	31 f6                	xor    %esi,%esi
    88ce:	48 89 df             	mov    %rbx,%rdi
    88d1:	e8 ca cf ff ff       	callq  58a0 <_dl_deallocate_tls@plt>
    88d6:	e9 a8 f8 ff ff       	jmpq   8183 <pthread_create@@GLIBC_2.2.5+0x7d3>
    88db:	48 8b 85 60 ff ff ff 	mov    -0xa0(%rbp),%rax
    88e2:	8b 55 80             	mov    -0x80(%rbp),%edx
    88e5:	4a 8d 3c 20          	lea    (%rax,%r12,1),%rdi
    88e9:	e8 72 d0 ff ff       	callq  5960 <__mprotect@plt>
    88ee:	85 c0                	test   %eax,%eax
    88f0:	0f 85 53 ff ff ff    	jne    8849 <pthread_create@@GLIBC_2.2.5+0xe99>
    88f6:	4c 89 a3 a0 06 00 00 	mov    %r12,0x6a0(%rbx)
    88fd:	e9 41 f4 ff ff       	jmpq   7d43 <pthread_create@@GLIBC_2.2.5+0x393>
    8902:	48 8b 05 97 16 21 00 	mov    0x211697(%rip),%rax        # 219fa0 <errno@GLIBC_PRIVATE>
    8909:	64 44 8b 00          	mov    %fs:(%rax),%r8d
    890d:	45 85 c0             	test   %r8d,%r8d
    8910:	0f 85 ce fc ff ff    	jne    85e4 <pthread_create@@GLIBC_2.2.5+0xc34>
    8916:	e9 c5 fb ff ff       	jmpq   84e0 <pthread_create@@GLIBC_2.2.5+0xb30>
    891b:	0f 1f 44 00 00       	nopl   0x0(%rax,%rax,1)
    8920:	48 8d bb 1c 06 00 00 	lea    0x61c(%rbx),%rdi
    8927:	45 31 d2             	xor    %r10d,%r10d
    892a:	ba 01 00 00 00       	mov    $0x1,%edx
    892f:	be 81 00 00 00       	mov    $0x81,%esi
    8934:	b8 ca 00 00 00       	mov    $0xca,%eax
    8939:	0f 05                	syscall 
    893b:	48 3d 00 f0 ff ff    	cmp    $0xfffffffffffff000,%rax
    8941:	0f 86 b5 fc ff ff    	jbe    85fc <pthread_create@@GLIBC_2.2.5+0xc4c>
    8947:	83 f8 ea             	cmp    $0xffffffea,%eax
    894a:	0f 84 ac fc ff ff    	je     85fc <pthread_create@@GLIBC_2.2.5+0xc4c>
    8950:	83 f8 f2             	cmp    $0xfffffff2,%eax
    8953:	0f 84 a3 fc ff ff    	je     85fc <pthread_create@@GLIBC_2.2.5+0xc4c>
    8959:	48 8d 3d 40 b8 00 00 	lea    0xb840(%rip),%rdi        # 141a0 <_fini+0x1c>
    8960:	e8 cb cd ff ff       	callq  5730 <__libc_fatal@plt>
    8965:	0f 1f 00             	nopl   (%rax)
    8968:	f0 ff 0d b1 59 21 00 	lock decl 0x2159b1(%rip)        # 21e320 <__default_pthread_attr_lock>
    896f:	74 1a                	je     898b <pthread_create@@GLIBC_2.2.5+0xfdb>
    8971:	48 8d 3d a8 59 21 00 	lea    0x2159a8(%rip),%rdi        # 21e320 <__default_pthread_attr_lock>
    8978:	48 81 ec 80 00 00 00 	sub    $0x80,%rsp
    897f:	e8 fc 87 00 00       	callq  11180 <__lll_unlock_wake_private>
    8984:	48 81 c4 80 00 00 00 	add    $0x80,%rsp
    898b:	41 b8 0c 00 00 00    	mov    $0xc,%r8d
    8991:	e9 12 f6 ff ff       	jmpq   7fa8 <pthread_create@@GLIBC_2.2.5+0x5f8>
    8996:	48 8d 0d 7b b9 00 00 	lea    0xb97b(%rip),%rcx        # 14318 <__PRETTY_FUNCTION__.12862>
    899d:	48 8d 35 44 b9 00 00 	lea    0xb944(%rip),%rsi        # 142e8 <banner+0x108>
    89a4:	48 8d 3d 40 ba 00 00 	lea    0xba40(%rip),%rdi        # 143eb <__PRETTY_FUNCTION__.12610+0xc3>
    89ab:	ba 76 00 00 00       	mov    $0x76,%edx
    89b0:	e8 8b ce ff ff       	callq  5840 <__assert_fail@plt>
    89b5:	e8 16 ce ff ff       	callq  57d0 <__stack_chk_fail@plt>
    89ba:	48 8d 0d 67 b9 00 00 	lea    0xb967(%rip),%rcx        # 14328 <__PRETTY_FUNCTION__.12610>
    89c1:	48 8d 35 6f b9 00 00 	lea    0xb96f(%rip),%rsi        # 14337 <__PRETTY_FUNCTION__.12610+0xf>
    89c8:	48 8d 3d e3 b9 00 00 	lea    0xb9e3(%rip),%rdi        # 143b2 <__PRETTY_FUNCTION__.12610+0x8a>
    89cf:	ba 12 02 00 00       	mov    $0x212,%edx
    89d4:	e8 67 ce ff ff       	callq  5840 <__assert_fail@plt>
    89d9:	48 8d 0d 48 b9 00 00 	lea    0xb948(%rip),%rcx        # 14328 <__PRETTY_FUNCTION__.12610>
    89e0:	48 8d 35 50 b9 00 00 	lea    0xb950(%rip),%rsi        # 14337 <__PRETTY_FUNCTION__.12610+0xf>
    89e7:	48 8d 3d 7f b9 00 00 	lea    0xb97f(%rip),%rdi        # 1436d <__PRETTY_FUNCTION__.12610+0x45>
    89ee:	ba 9d 01 00 00       	mov    $0x19d,%edx
    89f3:	e8 48 ce ff ff       	callq  5840 <__assert_fail@plt>
    89f8:	48 8d 0d 21 ba 00 00 	lea    0xba21(%rip),%rcx        # 14420 <__PRETTY_FUNCTION__.13044>
    89ff:	48 8d 35 c2 b9 00 00 	lea    0xb9c2(%rip),%rsi        # 143c8 <__PRETTY_FUNCTION__.12610+0xa0>
    8a06:	48 8d 3d df b9 00 00 	lea    0xb9df(%rip),%rdi        # 143ec <__PRETTY_FUNCTION__.12610+0xc4>
    8a0d:	ba 29 03 00 00       	mov    $0x329,%edx
    8a12:	e8 29 ce ff ff       	callq  5840 <__assert_fail@plt>
    8a17:	48 8d 0d 0a b9 00 00 	lea    0xb90a(%rip),%rcx        # 14328 <__PRETTY_FUNCTION__.12610>
    8a1e:	48 8d 35 12 b9 00 00 	lea    0xb912(%rip),%rsi        # 14337 <__PRETTY_FUNCTION__.12610+0xf>
    8a25:	48 8d 3d 90 b9 00 00 	lea    0xb990(%rip),%rdi        # 143bc <__PRETTY_FUNCTION__.12610+0x94>
    8a2c:	ba 3b 02 00 00       	mov    $0x23b,%edx
    8a31:	e8 0a ce ff ff       	callq  5840 <__assert_fail@plt>
    8a36:	45 84 ed             	test   %r13b,%r13b
    8a39:	0f 85 ca f4 ff ff    	jne    7f09 <pthread_create@@GLIBC_2.2.5+0x559>
    8a3f:	48 8d 0d d2 b8 00 00 	lea    0xb8d2(%rip),%rcx        # 14318 <__PRETTY_FUNCTION__.12862>
    8a46:	48 8d 35 9b b8 00 00 	lea    0xb89b(%rip),%rsi        # 142e8 <banner+0x108>
    8a4d:	48 8d 3d 97 b9 00 00 	lea    0xb997(%rip),%rdi        # 143eb <__PRETTY_FUNCTION__.12610+0xc3>
    8a54:	ba 8d 00 00 00       	mov    $0x8d,%edx
    8a59:	e8 e2 cd ff ff       	callq  5840 <__assert_fail@plt>
    8a5e:	48 8d 0d bb b9 00 00 	lea    0xb9bb(%rip),%rcx        # 14420 <__PRETTY_FUNCTION__.13044>
    8a65:	48 8d 35 5c b9 00 00 	lea    0xb95c(%rip),%rsi        # 143c8 <__PRETTY_FUNCTION__.12610+0xa0>
    8a6c:	48 8d 3d 66 b9 00 00 	lea    0xb966(%rip),%rdi        # 143d9 <__PRETTY_FUNCTION__.12610+0xb1>
    8a73:	ba 07 03 00 00       	mov    $0x307,%edx
    8a78:	e8 c3 cd ff ff       	callq  5840 <__assert_fail@plt>
    8a7d:	48 8d 0d a4 b8 00 00 	lea    0xb8a4(%rip),%rcx        # 14328 <__PRETTY_FUNCTION__.12610>
    8a84:	48 8d 35 ac b8 00 00 	lea    0xb8ac(%rip),%rsi        # 14337 <__PRETTY_FUNCTION__.12610+0xf>
    8a8b:	48 8d 3d 10 b9 00 00 	lea    0xb910(%rip),%rdi        # 143a2 <__PRETTY_FUNCTION__.12610+0x7a>
    8a92:	ba 76 02 00 00       	mov    $0x276,%edx
    8a97:	e8 a4 cd ff ff       	callq  5840 <__assert_fail@plt>
    8a9c:	48 8d 0d 85 b8 00 00 	lea    0xb885(%rip),%rcx        # 14328 <__PRETTY_FUNCTION__.12610>
    8aa3:	48 8d 35 8d b8 00 00 	lea    0xb88d(%rip),%rsi        # 14337 <__PRETTY_FUNCTION__.12610+0xf>
    8aaa:	48 8d 3d d7 b8 00 00 	lea    0xb8d7(%rip),%rdi        # 14388 <__PRETTY_FUNCTION__.12610+0x60>
    8ab1:	ba c1 01 00 00       	mov    $0x1c1,%edx
    8ab6:	e8 85 cd ff ff       	callq  5840 <__assert_fail@plt>
    8abb:	0f 1f 44 00 00       	nopl   0x0(%rax,%rax,1)

0000000000008ac0 <pthread_exit>:
    8ac0:	48 83 ec 08          	sub    $0x8,%rsp
    8ac4:	64 48 89 3c 25 30 06 	mov    %rdi,%fs:0x630
    8acb:	00 00 
    8acd:	f0 64 83 0c 25 08 03 	lock orl $0x10,%fs:0x308
    8ad4:	00 00 10 
    8ad7:	64 48 8b 3c 25 00 03 	mov    %fs:0x300,%rdi
    8ade:	00 00 
    8ae0:	e8 fb 83 00 00       	callq  10ee0 <__pthread_unwind>
    8ae5:	66 2e 0f 1f 84 00 00 	nopw   %cs:0x0(%rax,%rax,1)
    8aec:	00 00 00 
    8aef:	90                   	nop

0000000000008af0 <pthread_detach>:
    8af0:	48 85 ff             	test   %rdi,%rdi
    8af3:	74 3b                	je     8b30 <pthread_detach+0x40>
    8af5:	8b 87 d0 02 00 00    	mov    0x2d0(%rdi),%eax
    8afb:	85 c0                	test   %eax,%eax
    8afd:	78 31                	js     8b30 <pthread_detach+0x40>
    8aff:	31 c0                	xor    %eax,%eax
    8b01:	f0 48 0f b1 bf 28 06 	lock cmpxchg %rdi,0x628(%rdi)
    8b08:	00 00 
    8b0a:	75 2a                	jne    8b36 <pthread_detach+0x46>
    8b0c:	8b 87 08 03 00 00    	mov    0x308(%rdi),%eax
    8b12:	83 e0 10             	and    $0x10,%eax
    8b15:	75 09                	jne    8b20 <pthread_detach+0x30>
    8b17:	f3 c3                	repz retq 
    8b19:	0f 1f 80 00 00 00 00 	nopl   0x0(%rax)
    8b20:	48 83 ec 08          	sub    $0x8,%rsp
    8b24:	e8 e7 e8 ff ff       	callq  7410 <__free_tcb>
    8b29:	31 c0                	xor    %eax,%eax
    8b2b:	48 83 c4 08          	add    $0x8,%rsp
    8b2f:	c3                   	retq   
    8b30:	b8 03 00 00 00       	mov    $0x3,%eax
    8b35:	c3                   	retq   
    8b36:	48 39 bf 28 06 00 00 	cmp    %rdi,0x628(%rdi)
    8b3d:	ba 16 00 00 00       	mov    $0x16,%edx
    8b42:	b8 00 00 00 00       	mov    $0x0,%eax
    8b47:	0f 44 c2             	cmove  %edx,%eax
    8b4a:	c3                   	retq   
    8b4b:	0f 1f 44 00 00       	nopl   0x0(%rax,%rax,1)

0000000000008b50 <pthread_join>:
    8b50:	b9 01 00 00 00       	mov    $0x1,%ecx
    8b55:	31 d2                	xor    %edx,%edx
    8b57:	e9 54 00 00 00       	jmpq   8bb0 <__GI___pthread_timedjoin_ex>
    8b5c:	0f 1f 40 00          	nopl   0x0(%rax)

0000000000008b60 <pthread_tryjoin_np>:
    8b60:	8b 87 d0 02 00 00    	mov    0x2d0(%rdi),%eax
    8b66:	85 c0                	test   %eax,%eax
    8b68:	75 0e                	jne    8b78 <pthread_tryjoin_np+0x18>
    8b6a:	31 c9                	xor    %ecx,%ecx
    8b6c:	31 d2                	xor    %edx,%edx
    8b6e:	e9 3d 00 00 00       	jmpq   8bb0 <__GI___pthread_timedjoin_ex>
    8b73:	0f 1f 44 00 00       	nopl   0x0(%rax,%rax,1)
    8b78:	b8 10 00 00 00       	mov    $0x10,%eax
    8b7d:	c3                   	retq   
    8b7e:	66 90                	xchg   %ax,%ax

0000000000008b80 <pthread_timedjoin_np>:
    8b80:	b9 01 00 00 00       	mov    $0x1,%ecx
    8b85:	e9 26 00 00 00       	jmpq   8bb0 <__GI___pthread_timedjoin_ex>
    8b8a:	66 0f 1f 44 00 00    	nopw   0x0(%rax,%rax,1)

0000000000008b90 <cleanup>:
    8b90:	31 d2                	xor    %edx,%edx
    8b92:	48 89 7c 24 f8       	mov    %rdi,-0x8(%rsp)
    8b97:	64 48 8b 04 25 10 00 	mov    %fs:0x10,%rax
    8b9e:	00 00 
    8ba0:	f0 48 0f b1 54 24 f8 	lock cmpxchg %rdx,-0x8(%rsp)
    8ba7:	c3                   	retq   
    8ba8:	0f 1f 84 00 00 00 00 	nopl   0x0(%rax,%rax,1)
    8baf:	00 

0000000000008bb0 <__GI___pthread_timedjoin_ex>:
    8bb0:	41 56                	push   %r14
    8bb2:	41 55                	push   %r13
    8bb4:	41 54                	push   %r12
    8bb6:	55                   	push   %rbp
    8bb7:	53                   	push   %rbx
    8bb8:	48 83 ec 40          	sub    $0x40,%rsp
    8bbc:	64 48 8b 04 25 28 00 	mov    %fs:0x28,%rax
    8bc3:	00 00 
    8bc5:	48 89 44 24 38       	mov    %rax,0x38(%rsp)
    8bca:	31 c0                	xor    %eax,%eax
    8bcc:	48 85 ff             	test   %rdi,%rdi
    8bcf:	0f 84 d3 00 00 00    	je     8ca8 <__GI___pthread_timedjoin_ex+0xf8>
    8bd5:	48 89 fb             	mov    %rdi,%rbx
    8bd8:	8b bf d0 02 00 00    	mov    0x2d0(%rdi),%edi
    8bde:	85 ff                	test   %edi,%edi
    8be0:	0f 88 c2 00 00 00    	js     8ca8 <__GI___pthread_timedjoin_ex+0xf8>
    8be6:	48 39 9b 28 06 00 00 	cmp    %rbx,0x628(%rbx)
    8bed:	0f 84 bd 00 00 00    	je     8cb0 <__GI___pthread_timedjoin_ex+0x100>
    8bf3:	48 89 f5             	mov    %rsi,%rbp
    8bf6:	49 89 d4             	mov    %rdx,%r12
    8bf9:	64 48 8b 34 25 10 00 	mov    %fs:0x10,%rsi
    8c00:	00 00 
    8c02:	90                   	nop
    8c03:	48 39 f3             	cmp    %rsi,%rbx
    8c06:	0f 84 7d 00 00 00    	je     8c89 <__GI___pthread_timedjoin_ex+0xd9>
    8c0c:	48 39 9e 28 06 00 00 	cmp    %rbx,0x628(%rsi)
    8c13:	74 6b                	je     8c80 <__GI___pthread_timedjoin_ex+0xd0>
    8c15:	48 8d 93 28 06 00 00 	lea    0x628(%rbx),%rdx
    8c1c:	31 ff                	xor    %edi,%edi
    8c1e:	48 89 f0             	mov    %rsi,%rax
    8c21:	f0 48 0f b1 3a       	lock cmpxchg %rdi,(%rdx)
    8c26:	0f 84 84 00 00 00    	je     8cb0 <__GI___pthread_timedjoin_ex+0x100>
    8c2c:	84 c9                	test   %cl,%cl
    8c2e:	0f 85 8c 00 00 00    	jne    8cc0 <__GI___pthread_timedjoin_ex+0x110>
    8c34:	48 85 ed             	test   %rbp,%rbp
    8c37:	c7 83 d0 02 00 00 ff 	movl   $0xffffffff,0x2d0(%rbx)
    8c3e:	ff ff ff 
    8c41:	74 0b                	je     8c4e <__GI___pthread_timedjoin_ex+0x9e>
    8c43:	48 8b 83 30 06 00 00 	mov    0x630(%rbx),%rax
    8c4a:	48 89 45 00          	mov    %rax,0x0(%rbp)
    8c4e:	48 89 df             	mov    %rbx,%rdi
    8c51:	e8 ba e7 ff ff       	callq  7410 <__free_tcb>
    8c56:	31 c0                	xor    %eax,%eax
    8c58:	90                   	nop
    8c59:	48 8b 4c 24 38       	mov    0x38(%rsp),%rcx
    8c5e:	64 48 33 0c 25 28 00 	xor    %fs:0x28,%rcx
    8c65:	00 00 
    8c67:	0f 85 14 01 00 00    	jne    8d81 <__GI___pthread_timedjoin_ex+0x1d1>
    8c6d:	48 83 c4 40          	add    $0x40,%rsp
    8c71:	5b                   	pop    %rbx
    8c72:	5d                   	pop    %rbp
    8c73:	41 5c                	pop    %r12
    8c75:	41 5d                	pop    %r13
    8c77:	41 5e                	pop    %r14
    8c79:	c3                   	retq   
    8c7a:	66 0f 1f 44 00 00    	nopw   0x0(%rax,%rax,1)
    8c80:	f6 83 08 03 00 00 3c 	testb  $0x3c,0x308(%rbx)
    8c87:	75 8c                	jne    8c15 <__GI___pthread_timedjoin_ex+0x65>
    8c89:	8b 96 08 03 00 00    	mov    0x308(%rsi),%edx
    8c8f:	b8 23 00 00 00       	mov    $0x23,%eax
    8c94:	83 e2 b9             	and    $0xffffffb9,%edx
    8c97:	83 fa 08             	cmp    $0x8,%edx
    8c9a:	0f 84 75 ff ff ff    	je     8c15 <__GI___pthread_timedjoin_ex+0x65>
    8ca0:	eb b7                	jmp    8c59 <__GI___pthread_timedjoin_ex+0xa9>
    8ca2:	66 0f 1f 44 00 00    	nopw   0x0(%rax,%rax,1)
    8ca8:	b8 03 00 00 00       	mov    $0x3,%eax
    8cad:	eb aa                	jmp    8c59 <__GI___pthread_timedjoin_ex+0xa9>
    8caf:	90                   	nop
    8cb0:	b8 16 00 00 00       	mov    $0x16,%eax
    8cb5:	eb a2                	jmp    8c59 <__GI___pthread_timedjoin_ex+0xa9>
    8cb7:	66 0f 1f 84 00 00 00 	nopw   0x0(%rax,%rax,1)
    8cbe:	00 00 
    8cc0:	4c 8d 6c 24 10       	lea    0x10(%rsp),%r13
    8cc5:	48 8d 35 c4 fe ff ff 	lea    -0x13c(%rip),%rsi        # 8b90 <cleanup>
    8ccc:	4c 89 ef             	mov    %r13,%rdi
    8ccf:	e8 6c 7f 00 00       	callq  10c40 <_pthread_cleanup_push>
    8cd4:	e8 37 83 00 00       	callq  11010 <__pthread_enable_asynccancel>
    8cd9:	4d 85 e4             	test   %r12,%r12
    8cdc:	41 89 c6             	mov    %eax,%r14d
    8cdf:	74 27                	je     8d08 <__GI___pthread_timedjoin_ex+0x158>
    8ce1:	8b 83 d0 02 00 00    	mov    0x2d0(%rbx),%eax
    8ce7:	85 c0                	test   %eax,%eax
    8ce9:	75 55                	jne    8d40 <__GI___pthread_timedjoin_ex+0x190>
    8ceb:	44 89 f7             	mov    %r14d,%edi
    8cee:	e8 7d 83 00 00       	callq  11070 <__pthread_disable_asynccancel>
    8cf3:	31 f6                	xor    %esi,%esi
    8cf5:	4c 89 ef             	mov    %r13,%rdi
    8cf8:	e8 63 7f 00 00       	callq  10c60 <_pthread_cleanup_pop>
    8cfd:	e9 32 ff ff ff       	jmpq   8c34 <__GI___pthread_timedjoin_ex+0x84>
    8d02:	66 0f 1f 44 00 00    	nopw   0x0(%rax,%rax,1)
    8d08:	8b 93 d0 02 00 00    	mov    0x2d0(%rbx),%edx
    8d0e:	4c 8d 8b d0 02 00 00 	lea    0x2d0(%rbx),%r9
    8d15:	41 b8 ca 00 00 00    	mov    $0xca,%r8d
    8d1b:	85 d2                	test   %edx,%edx
    8d1d:	74 cc                	je     8ceb <__GI___pthread_timedjoin_ex+0x13b>
    8d1f:	90                   	nop
    8d20:	45 31 d2             	xor    %r10d,%r10d
    8d23:	31 f6                	xor    %esi,%esi
    8d25:	4c 89 cf             	mov    %r9,%rdi
    8d28:	44 89 c0             	mov    %r8d,%eax
    8d2b:	0f 05                	syscall 
    8d2d:	8b 93 d0 02 00 00    	mov    0x2d0(%rbx),%edx
    8d33:	85 d2                	test   %edx,%edx
    8d35:	75 e9                	jne    8d20 <__GI___pthread_timedjoin_ex+0x170>
    8d37:	eb b2                	jmp    8ceb <__GI___pthread_timedjoin_ex+0x13b>
    8d39:	0f 1f 80 00 00 00 00 	nopl   0x0(%rax)
    8d40:	48 8d bb d0 02 00 00 	lea    0x2d0(%rbx),%rdi
    8d47:	4c 89 e6             	mov    %r12,%rsi
    8d4a:	e8 71 84 00 00       	callq  111c0 <__lll_timedwait_tid>
    8d4f:	44 89 f7             	mov    %r14d,%edi
    8d52:	89 44 24 0c          	mov    %eax,0xc(%rsp)
    8d56:	e8 15 83 00 00       	callq  11070 <__pthread_disable_asynccancel>
    8d5b:	31 f6                	xor    %esi,%esi
    8d5d:	4c 89 ef             	mov    %r13,%rdi
    8d60:	e8 fb 7e 00 00       	callq  10c60 <_pthread_cleanup_pop>
    8d65:	8b 44 24 0c          	mov    0xc(%rsp),%eax
    8d69:	85 c0                	test   %eax,%eax
    8d6b:	0f 84 c3 fe ff ff    	je     8c34 <__GI___pthread_timedjoin_ex+0x84>
    8d71:	48 c7 83 28 06 00 00 	movq   $0x0,0x628(%rbx)
    8d78:	00 00 00 00 
    8d7c:	e9 d7 fe ff ff       	jmpq   8c58 <__GI___pthread_timedjoin_ex+0xa8>
    8d81:	e8 4a ca ff ff       	callq  57d0 <__stack_chk_fail@plt>
    8d86:	66 2e 0f 1f 84 00 00 	nopw   %cs:0x0(%rax,%rax,1)
    8d8d:	00 00 00 

0000000000008d90 <pthread_self@GLIBC_2.2.5>:
    8d90:	64 48 8b 04 25 10 00 	mov    %fs:0x10,%rax
    8d97:	00 00 
    8d99:	c3                   	retq   
    8d9a:	66 0f 1f 44 00 00    	nopw   0x0(%rax,%rax,1)

0000000000008da0 <pthread_equal>:
    8da0:	31 c0                	xor    %eax,%eax
    8da2:	48 39 f7             	cmp    %rsi,%rdi
    8da5:	0f 94 c0             	sete   %al
    8da8:	c3                   	retq   
    8da9:	0f 1f 80 00 00 00 00 	nopl   0x0(%rax)

0000000000008db0 <pthread_yield>:
    8db0:	e9 db ca ff ff       	jmpq   5890 <sched_yield@plt>
    8db5:	66 2e 0f 1f 84 00 00 	nopw   %cs:0x0(%rax,%rax,1)
    8dbc:	00 00 00 
    8dbf:	90                   	nop

0000000000008dc0 <pthread_getconcurrency>:
    8dc0:	8b 05 96 56 21 00    	mov    0x215696(%rip),%eax        # 21e45c <__concurrency_level>
    8dc6:	c3                   	retq   
    8dc7:	66 0f 1f 84 00 00 00 	nopw   0x0(%rax,%rax,1)
    8dce:	00 00 

0000000000008dd0 <pthread_setconcurrency>:
    8dd0:	85 ff                	test   %edi,%edi
    8dd2:	78 0c                	js     8de0 <pthread_setconcurrency+0x10>
    8dd4:	89 3d 82 56 21 00    	mov    %edi,0x215682(%rip)        # 21e45c <__concurrency_level>
    8dda:	31 c0                	xor    %eax,%eax
    8ddc:	c3                   	retq   
    8ddd:	0f 1f 00             	nopl   (%rax)
    8de0:	b8 16 00 00 00       	mov    $0x16,%eax
    8de5:	c3                   	retq   
    8de6:	66 2e 0f 1f 84 00 00 	nopw   %cs:0x0(%rax,%rax,1)
    8ded:	00 00 00 

0000000000008df0 <pthread_getschedparam>:
    8df0:	48 85 ff             	test   %rdi,%rdi
    8df3:	0f 84 0f 01 00 00    	je     8f08 <pthread_getschedparam+0x118>
    8df9:	8b 87 d0 02 00 00    	mov    0x2d0(%rdi),%eax
    8dff:	85 c0                	test   %eax,%eax
    8e01:	0f 8e 01 01 00 00    	jle    8f08 <pthread_getschedparam+0x118>
    8e07:	41 54                	push   %r12
    8e09:	31 c0                	xor    %eax,%eax
    8e0b:	55                   	push   %rbp
    8e0c:	49 89 d4             	mov    %rdx,%r12
    8e0f:	53                   	push   %rbx
    8e10:	48 89 f5             	mov    %rsi,%rbp
    8e13:	48 89 fb             	mov    %rdi,%rbx
    8e16:	be 01 00 00 00       	mov    $0x1,%esi
    8e1b:	f0 0f b1 b3 18 06 00 	lock cmpxchg %esi,0x618(%rbx)
    8e22:	00 
    8e23:	74 1a                	je     8e3f <pthread_getschedparam+0x4f>
    8e25:	48 8d bb 18 06 00 00 	lea    0x618(%rbx),%rdi
    8e2c:	48 81 ec 80 00 00 00 	sub    $0x80,%rsp
    8e33:	e8 98 82 00 00       	callq  110d0 <__lll_lock_wait_private>
    8e38:	48 81 c4 80 00 00 00 	add    $0x80,%rsp
    8e3f:	8b 83 0c 03 00 00    	mov    0x30c(%rbx),%eax
    8e45:	a8 20                	test   $0x20,%al
    8e47:	74 67                	je     8eb0 <pthread_getschedparam+0xc0>
    8e49:	a8 40                	test   $0x40,%al
    8e4b:	74 43                	je     8e90 <pthread_getschedparam+0xa0>
    8e4d:	8b 83 3c 06 00 00    	mov    0x63c(%rbx),%eax
    8e53:	31 d2                	xor    %edx,%edx
    8e55:	89 45 00             	mov    %eax,0x0(%rbp)
    8e58:	8b 83 38 06 00 00    	mov    0x638(%rbx),%eax
    8e5e:	41 89 04 24          	mov    %eax,(%r12)
    8e62:	f0 ff 8b 18 06 00 00 	lock decl 0x618(%rbx)
    8e69:	74 1a                	je     8e85 <pthread_getschedparam+0x95>
    8e6b:	48 8d bb 18 06 00 00 	lea    0x618(%rbx),%rdi
    8e72:	48 81 ec 80 00 00 00 	sub    $0x80,%rsp
    8e79:	e8 02 83 00 00       	callq  11180 <__lll_unlock_wake_private>
    8e7e:	48 81 c4 80 00 00 00 	add    $0x80,%rsp
    8e85:	5b                   	pop    %rbx
    8e86:	89 d0                	mov    %edx,%eax
    8e88:	5d                   	pop    %rbp
    8e89:	41 5c                	pop    %r12
    8e8b:	c3                   	retq   
    8e8c:	0f 1f 40 00          	nopl   0x0(%rax)
    8e90:	8b bb d0 02 00 00    	mov    0x2d0(%rbx),%edi
    8e96:	e8 75 c8 ff ff       	callq  5710 <__sched_getscheduler@plt>
    8e9b:	83 f8 ff             	cmp    $0xffffffff,%eax
    8e9e:	89 83 3c 06 00 00    	mov    %eax,0x63c(%rbx)
    8ea4:	75 6a                	jne    8f10 <pthread_getschedparam+0x120>
    8ea6:	ba 01 00 00 00       	mov    $0x1,%edx
    8eab:	eb b5                	jmp    8e62 <pthread_getschedparam+0x72>
    8ead:	0f 1f 00             	nopl   (%rax)
    8eb0:	8b bb d0 02 00 00    	mov    0x2d0(%rbx),%edi
    8eb6:	48 8d b3 38 06 00 00 	lea    0x638(%rbx),%rsi
    8ebd:	e8 fe c9 ff ff       	callq  58c0 <__sched_getparam@plt>
    8ec2:	85 c0                	test   %eax,%eax
    8ec4:	74 2a                	je     8ef0 <pthread_getschedparam+0x100>
    8ec6:	f6 83 0c 03 00 00 40 	testb  $0x40,0x30c(%rbx)
    8ecd:	75 d7                	jne    8ea6 <pthread_getschedparam+0xb6>
    8ecf:	8b bb d0 02 00 00    	mov    0x2d0(%rbx),%edi
    8ed5:	e8 36 c8 ff ff       	callq  5710 <__sched_getscheduler@plt>
    8eda:	89 83 3c 06 00 00    	mov    %eax,0x63c(%rbx)
    8ee0:	83 c0 01             	add    $0x1,%eax
    8ee3:	74 c1                	je     8ea6 <pthread_getschedparam+0xb6>
    8ee5:	83 8b 0c 03 00 00 40 	orl    $0x40,0x30c(%rbx)
    8eec:	eb b8                	jmp    8ea6 <pthread_getschedparam+0xb6>
    8eee:	66 90                	xchg   %ax,%ax
    8ef0:	8b 83 0c 03 00 00    	mov    0x30c(%rbx),%eax
    8ef6:	83 c8 20             	or     $0x20,%eax
    8ef9:	89 83 0c 03 00 00    	mov    %eax,0x30c(%rbx)
    8eff:	e9 45 ff ff ff       	jmpq   8e49 <pthread_getschedparam+0x59>
    8f04:	0f 1f 40 00          	nopl   0x0(%rax)
    8f08:	ba 03 00 00 00       	mov    $0x3,%edx
    8f0d:	89 d0                	mov    %edx,%eax
    8f0f:	c3                   	retq   
    8f10:	83 8b 0c 03 00 00 40 	orl    $0x40,0x30c(%rbx)
    8f17:	e9 31 ff ff ff       	jmpq   8e4d <pthread_getschedparam+0x5d>
    8f1c:	0f 1f 40 00          	nopl   0x0(%rax)

0000000000008f20 <pthread_setschedparam>:
    8f20:	41 54                	push   %r12
    8f22:	55                   	push   %rbp
    8f23:	53                   	push   %rbx
    8f24:	48 83 ec 10          	sub    $0x10,%rsp
    8f28:	64 48 8b 04 25 28 00 	mov    %fs:0x28,%rax
    8f2f:	00 00 
    8f31:	48 89 44 24 08       	mov    %rax,0x8(%rsp)
    8f36:	31 c0                	xor    %eax,%eax
    8f38:	48 85 ff             	test   %rdi,%rdi
    8f3b:	0f 84 bf 00 00 00    	je     9000 <pthread_setschedparam+0xe0>
    8f41:	8b 8f d0 02 00 00    	mov    0x2d0(%rdi),%ecx
    8f47:	48 89 fb             	mov    %rdi,%rbx
    8f4a:	85 c9                	test   %ecx,%ecx
    8f4c:	0f 8e ae 00 00 00    	jle    9000 <pthread_setschedparam+0xe0>
    8f52:	41 89 f4             	mov    %esi,%r12d
    8f55:	48 89 d5             	mov    %rdx,%rbp
    8f58:	be 01 00 00 00       	mov    $0x1,%esi
    8f5d:	f0 0f b1 b3 18 06 00 	lock cmpxchg %esi,0x618(%rbx)
    8f64:	00 
    8f65:	74 1a                	je     8f81 <pthread_setschedparam+0x61>
    8f67:	48 8d bb 18 06 00 00 	lea    0x618(%rbx),%rdi
    8f6e:	48 81 ec 80 00 00 00 	sub    $0x80,%rsp
    8f75:	e8 56 81 00 00       	callq  110d0 <__lll_lock_wait_private>
    8f7a:	48 81 c4 80 00 00 00 	add    $0x80,%rsp
    8f81:	48 8b 83 b0 06 00 00 	mov    0x6b0(%rbx),%rax
    8f88:	48 85 c0             	test   %rax,%rax
    8f8b:	0f 85 7f 00 00 00    	jne    9010 <pthread_setschedparam+0xf0>
    8f91:	8b bb d0 02 00 00    	mov    0x2d0(%rbx),%edi
    8f97:	44 89 e6             	mov    %r12d,%esi
    8f9a:	e8 11 ca ff ff       	callq  59b0 <__sched_setscheduler@plt>
    8f9f:	83 f8 ff             	cmp    $0xffffffff,%eax
    8fa2:	0f 84 88 00 00 00    	je     9030 <pthread_setschedparam+0x110>
    8fa8:	44 89 a3 3c 06 00 00 	mov    %r12d,0x63c(%rbx)
    8faf:	8b 45 00             	mov    0x0(%rbp),%eax
    8fb2:	31 d2                	xor    %edx,%edx
    8fb4:	83 8b 0c 03 00 00 60 	orl    $0x60,0x30c(%rbx)
    8fbb:	89 83 38 06 00 00    	mov    %eax,0x638(%rbx)
    8fc1:	f0 ff 8b 18 06 00 00 	lock decl 0x618(%rbx)
    8fc8:	74 1a                	je     8fe4 <pthread_setschedparam+0xc4>
    8fca:	48 8d bb 18 06 00 00 	lea    0x618(%rbx),%rdi
    8fd1:	48 81 ec 80 00 00 00 	sub    $0x80,%rsp
    8fd8:	e8 a3 81 00 00       	callq  11180 <__lll_unlock_wake_private>
    8fdd:	48 81 c4 80 00 00 00 	add    $0x80,%rsp
    8fe4:	48 8b 4c 24 08       	mov    0x8(%rsp),%rcx
    8fe9:	64 48 33 0c 25 28 00 	xor    %fs:0x28,%rcx
    8ff0:	00 00 
    8ff2:	89 d0                	mov    %edx,%eax
    8ff4:	75 49                	jne    903f <pthread_setschedparam+0x11f>
    8ff6:	48 83 c4 10          	add    $0x10,%rsp
    8ffa:	5b                   	pop    %rbx
    8ffb:	5d                   	pop    %rbp
    8ffc:	41 5c                	pop    %r12
    8ffe:	c3                   	retq   
    8fff:	90                   	nop
    9000:	ba 03 00 00 00       	mov    $0x3,%edx
    9005:	eb dd                	jmp    8fe4 <pthread_setschedparam+0xc4>
    9007:	66 0f 1f 84 00 00 00 	nopw   0x0(%rax,%rax,1)
    900e:	00 00 
    9010:	8b 00                	mov    (%rax),%eax
    9012:	3b 02                	cmp    (%rdx),%eax
    9014:	0f 8e 77 ff ff ff    	jle    8f91 <pthread_setschedparam+0x71>
    901a:	89 44 24 04          	mov    %eax,0x4(%rsp)
    901e:	48 8d 54 24 04       	lea    0x4(%rsp),%rdx
    9023:	e9 69 ff ff ff       	jmpq   8f91 <pthread_setschedparam+0x71>
    9028:	0f 1f 84 00 00 00 00 	nopl   0x0(%rax,%rax,1)
    902f:	00 
    9030:	48 8b 05 69 0f 21 00 	mov    0x210f69(%rip),%rax        # 219fa0 <errno@GLIBC_PRIVATE>
    9037:	64 8b 10             	mov    %fs:(%rax),%edx
    903a:	e9 82 ff ff ff       	jmpq   8fc1 <pthread_setschedparam+0xa1>
    903f:	e8 8c c7 ff ff       	callq  57d0 <__stack_chk_fail@plt>
    9044:	66 2e 0f 1f 84 00 00 	nopw   %cs:0x0(%rax,%rax,1)
    904b:	00 00 00 
    904e:	66 90                	xchg   %ax,%ax

0000000000009050 <pthread_setschedprio>:
    9050:	55                   	push   %rbp
    9051:	53                   	push   %rbx
    9052:	48 83 ec 18          	sub    $0x18,%rsp
    9056:	64 48 8b 04 25 28 00 	mov    %fs:0x28,%rax
    905d:	00 00 
    905f:	48 89 44 24 08       	mov    %rax,0x8(%rsp)
    9064:	31 c0                	xor    %eax,%eax
    9066:	48 85 ff             	test   %rdi,%rdi
    9069:	0f 84 b1 00 00 00    	je     9120 <pthread_setschedprio+0xd0>
    906f:	8b 97 d0 02 00 00    	mov    0x2d0(%rdi),%edx
    9075:	48 89 fb             	mov    %rdi,%rbx
    9078:	85 d2                	test   %edx,%edx
    907a:	0f 8e a0 00 00 00    	jle    9120 <pthread_setschedprio+0xd0>
    9080:	89 f5                	mov    %esi,%ebp
    9082:	89 74 24 04          	mov    %esi,0x4(%rsp)
    9086:	be 01 00 00 00       	mov    $0x1,%esi
    908b:	f0 0f b1 b3 18 06 00 	lock cmpxchg %esi,0x618(%rbx)
    9092:	00 
    9093:	74 1a                	je     90af <pthread_setschedprio+0x5f>
    9095:	48 8d bb 18 06 00 00 	lea    0x618(%rbx),%rdi
    909c:	48 81 ec 80 00 00 00 	sub    $0x80,%rsp
    90a3:	e8 28 80 00 00       	callq  110d0 <__lll_lock_wait_private>
    90a8:	48 81 c4 80 00 00 00 	add    $0x80,%rsp
    90af:	48 8b 83 b0 06 00 00 	mov    0x6b0(%rbx),%rax
    90b6:	48 85 c0             	test   %rax,%rax
    90b9:	75 75                	jne    9130 <pthread_setschedprio+0xe0>
    90bb:	8b bb d0 02 00 00    	mov    0x2d0(%rbx),%edi
    90c1:	48 8d 74 24 04       	lea    0x4(%rsp),%rsi
    90c6:	e8 25 ca ff ff       	callq  5af0 <sched_setparam@plt>
    90cb:	83 f8 ff             	cmp    $0xffffffff,%eax
    90ce:	74 70                	je     9140 <pthread_setschedprio+0xf0>
    90d0:	83 8b 0c 03 00 00 20 	orl    $0x20,0x30c(%rbx)
    90d7:	89 6c 24 04          	mov    %ebp,0x4(%rsp)
    90db:	31 d2                	xor    %edx,%edx
    90dd:	89 ab 38 06 00 00    	mov    %ebp,0x638(%rbx)
    90e3:	f0 ff 8b 18 06 00 00 	lock decl 0x618(%rbx)
    90ea:	74 1a                	je     9106 <pthread_setschedprio+0xb6>
    90ec:	48 8d bb 18 06 00 00 	lea    0x618(%rbx),%rdi
    90f3:	48 81 ec 80 00 00 00 	sub    $0x80,%rsp
    90fa:	e8 81 80 00 00       	callq  11180 <__lll_unlock_wake_private>
    90ff:	48 81 c4 80 00 00 00 	add    $0x80,%rsp
    9106:	48 8b 4c 24 08       	mov    0x8(%rsp),%rcx
    910b:	64 48 33 0c 25 28 00 	xor    %fs:0x28,%rcx
    9112:	00 00 
    9114:	89 d0                	mov    %edx,%eax
    9116:	75 34                	jne    914c <pthread_setschedprio+0xfc>
    9118:	48 83 c4 18          	add    $0x18,%rsp
    911c:	5b                   	pop    %rbx
    911d:	5d                   	pop    %rbp
    911e:	c3                   	retq   
    911f:	90                   	nop
    9120:	ba 03 00 00 00       	mov    $0x3,%edx
    9125:	eb df                	jmp    9106 <pthread_setschedprio+0xb6>
    9127:	66 0f 1f 84 00 00 00 	nopw   0x0(%rax,%rax,1)
    912e:	00 00 
    9130:	8b 00                	mov    (%rax),%eax
    9132:	39 e8                	cmp    %ebp,%eax
    9134:	7e 85                	jle    90bb <pthread_setschedprio+0x6b>
    9136:	89 44 24 04          	mov    %eax,0x4(%rsp)
    913a:	e9 7c ff ff ff       	jmpq   90bb <pthread_setschedprio+0x6b>
    913f:	90                   	nop
    9140:	48 8b 05 59 0e 21 00 	mov    0x210e59(%rip),%rax        # 219fa0 <errno@GLIBC_PRIVATE>
    9147:	64 8b 10             	mov    %fs:(%rax),%edx
    914a:	eb 97                	jmp    90e3 <pthread_setschedprio+0x93>
    914c:	e8 7f c6 ff ff       	callq  57d0 <__stack_chk_fail@plt>
    9151:	66 2e 0f 1f 84 00 00 	nopw   %cs:0x0(%rax,%rax,1)
    9158:	00 00 00 
    915b:	0f 1f 44 00 00       	nopl   0x0(%rax,%rax,1)

0000000000009160 <pthread_attr_init@@GLIBC_2.2.5>:
    9160:	66 0f ef c0          	pxor   %xmm0,%xmm0
    9164:	53                   	push   %rbx
    9165:	48 c7 47 30 00 00 00 	movq   $0x0,0x30(%rdi)
    916c:	00 
    916d:	48 89 fb             	mov    %rdi,%rbx
    9170:	0f 11 07             	movups %xmm0,(%rdi)
    9173:	0f 11 47 10          	movups %xmm0,0x10(%rdi)
    9177:	0f 11 47 20          	movups %xmm0,0x20(%rdi)
    917b:	e8 50 c8 ff ff       	callq  59d0 <__getpagesize@plt>
    9180:	48 98                	cltq   
    9182:	48 89 43 10          	mov    %rax,0x10(%rbx)
    9186:	31 c0                	xor    %eax,%eax
    9188:	5b                   	pop    %rbx
    9189:	c3                   	retq   
    918a:	66 0f 1f 44 00 00    	nopw   0x0(%rax,%rax,1)

0000000000009190 <pthread_attr_destroy>:
    9190:	48 83 ec 08          	sub    $0x8,%rsp
    9194:	48 8b 7f 28          	mov    0x28(%rdi),%rdi
    9198:	e8 23 c5 ff ff       	callq  56c0 <free@plt>
    919d:	31 c0                	xor    %eax,%eax
    919f:	48 83 c4 08          	add    $0x8,%rsp
    91a3:	c3                   	retq   
    91a4:	66 2e 0f 1f 84 00 00 	nopw   %cs:0x0(%rax,%rax,1)
    91ab:	00 00 00 
    91ae:	66 90                	xchg   %ax,%ax

00000000000091b0 <pthread_attr_getdetachstate>:
    91b0:	8b 47 08             	mov    0x8(%rdi),%eax
    91b3:	83 e0 01             	and    $0x1,%eax
    91b6:	89 06                	mov    %eax,(%rsi)
    91b8:	31 c0                	xor    %eax,%eax
    91ba:	c3                   	retq   
    91bb:	0f 1f 44 00 00       	nopl   0x0(%rax,%rax,1)

00000000000091c0 <pthread_attr_setdetachstate>:
    91c0:	83 fe 01             	cmp    $0x1,%esi
    91c3:	74 0b                	je     91d0 <pthread_attr_setdetachstate+0x10>
    91c5:	85 f6                	test   %esi,%esi
    91c7:	75 17                	jne    91e0 <pthread_attr_setdetachstate+0x20>
    91c9:	83 67 08 fe          	andl   $0xfffffffe,0x8(%rdi)
    91cd:	31 c0                	xor    %eax,%eax
    91cf:	c3                   	retq   
    91d0:	83 4f 08 01          	orl    $0x1,0x8(%rdi)
    91d4:	31 c0                	xor    %eax,%eax
    91d6:	c3                   	retq   
    91d7:	66 0f 1f 84 00 00 00 	nopw   0x0(%rax,%rax,1)
    91de:	00 00 
    91e0:	b8 16 00 00 00       	mov    $0x16,%eax
    91e5:	c3                   	retq   
    91e6:	66 2e 0f 1f 84 00 00 	nopw   %cs:0x0(%rax,%rax,1)
    91ed:	00 00 00 

00000000000091f0 <pthread_attr_getguardsize>:
    91f0:	48 8b 47 10          	mov    0x10(%rdi),%rax
    91f4:	48 89 06             	mov    %rax,(%rsi)
    91f7:	31 c0                	xor    %eax,%eax
    91f9:	c3                   	retq   
    91fa:	66 0f 1f 44 00 00    	nopw   0x0(%rax,%rax,1)

0000000000009200 <pthread_attr_setguardsize>:
    9200:	48 89 77 10          	mov    %rsi,0x10(%rdi)
    9204:	31 c0                	xor    %eax,%eax
    9206:	c3                   	retq   
    9207:	66 0f 1f 84 00 00 00 	nopw   0x0(%rax,%rax,1)
    920e:	00 00 

0000000000009210 <pthread_attr_getschedparam>:
    9210:	8b 07                	mov    (%rdi),%eax
    9212:	89 06                	mov    %eax,(%rsi)
    9214:	31 c0                	xor    %eax,%eax
    9216:	c3                   	retq   
    9217:	66 0f 1f 84 00 00 00 	nopw   0x0(%rax,%rax,1)
    921e:	00 00 

0000000000009220 <pthread_attr_setschedparam>:
    9220:	41 56                	push   %r14
    9222:	41 55                	push   %r13
    9224:	49 89 f5             	mov    %rsi,%r13
    9227:	41 54                	push   %r12
    9229:	55                   	push   %rbp
    922a:	53                   	push   %rbx
    922b:	8b 6f 04             	mov    0x4(%rdi),%ebp
    922e:	48 89 fb             	mov    %rdi,%rbx
    9231:	44 8b 36             	mov    (%rsi),%r14d
    9234:	89 ef                	mov    %ebp,%edi
    9236:	e8 55 c9 ff ff       	callq  5b90 <__sched_get_priority_min@plt>
    923b:	89 ef                	mov    %ebp,%edi
    923d:	41 89 c4             	mov    %eax,%r12d
    9240:	e8 0b c5 ff ff       	callq  5750 <__sched_get_priority_max@plt>
    9245:	45 85 e4             	test   %r12d,%r12d
    9248:	78 26                	js     9270 <pthread_attr_setschedparam+0x50>
    924a:	85 c0                	test   %eax,%eax
    924c:	78 22                	js     9270 <pthread_attr_setschedparam+0x50>
    924e:	45 39 e6             	cmp    %r12d,%r14d
    9251:	7c 1d                	jl     9270 <pthread_attr_setschedparam+0x50>
    9253:	41 39 c6             	cmp    %eax,%r14d
    9256:	7f 18                	jg     9270 <pthread_attr_setschedparam+0x50>
    9258:	41 8b 45 00          	mov    0x0(%r13),%eax
    925c:	83 4b 08 20          	orl    $0x20,0x8(%rbx)
    9260:	89 03                	mov    %eax,(%rbx)
    9262:	31 c0                	xor    %eax,%eax
    9264:	5b                   	pop    %rbx
    9265:	5d                   	pop    %rbp
    9266:	41 5c                	pop    %r12
    9268:	41 5d                	pop    %r13
    926a:	41 5e                	pop    %r14
    926c:	c3                   	retq   
    926d:	0f 1f 00             	nopl   (%rax)
    9270:	5b                   	pop    %rbx
    9271:	b8 16 00 00 00       	mov    $0x16,%eax
    9276:	5d                   	pop    %rbp
    9277:	41 5c                	pop    %r12
    9279:	41 5d                	pop    %r13
    927b:	41 5e                	pop    %r14
    927d:	c3                   	retq   
    927e:	66 90                	xchg   %ax,%ax

0000000000009280 <pthread_attr_getschedpolicy>:
    9280:	8b 47 04             	mov    0x4(%rdi),%eax
    9283:	89 06                	mov    %eax,(%rsi)
    9285:	31 c0                	xor    %eax,%eax
    9287:	c3                   	retq   
    9288:	0f 1f 84 00 00 00 00 	nopl   0x0(%rax,%rax,1)
    928f:	00 

0000000000009290 <pthread_attr_setschedpolicy>:
    9290:	83 fe 02             	cmp    $0x2,%esi
    9293:	b8 16 00 00 00       	mov    $0x16,%eax
    9298:	77 09                	ja     92a3 <pthread_attr_setschedpolicy+0x13>
    929a:	83 4f 08 40          	orl    $0x40,0x8(%rdi)
    929e:	89 77 04             	mov    %esi,0x4(%rdi)
    92a1:	31 c0                	xor    %eax,%eax
    92a3:	f3 c3                	repz retq 
    92a5:	66 2e 0f 1f 84 00 00 	nopw   %cs:0x0(%rax,%rax,1)
    92ac:	00 00 00 
    92af:	90                   	nop

00000000000092b0 <pthread_attr_getinheritsched>:
    92b0:	8b 47 08             	mov    0x8(%rdi),%eax
    92b3:	d1 f8                	sar    %eax
    92b5:	83 e0 01             	and    $0x1,%eax
    92b8:	89 06                	mov    %eax,(%rsi)
    92ba:	31 c0                	xor    %eax,%eax
    92bc:	c3                   	retq   
    92bd:	0f 1f 00             	nopl   (%rax)

00000000000092c0 <pthread_attr_setinheritsched>:
    92c0:	83 fe 01             	cmp    $0x1,%esi
    92c3:	b8 16 00 00 00       	mov    $0x16,%eax
    92c8:	77 0f                	ja     92d9 <pthread_attr_setinheritsched+0x19>
    92ca:	85 f6                	test   %esi,%esi
    92cc:	8b 47 08             	mov    0x8(%rdi),%eax
    92cf:	75 0f                	jne    92e0 <pthread_attr_setinheritsched+0x20>
    92d1:	83 e0 fd             	and    $0xfffffffd,%eax
    92d4:	89 47 08             	mov    %eax,0x8(%rdi)
    92d7:	31 c0                	xor    %eax,%eax
    92d9:	f3 c3                	repz retq 
    92db:	0f 1f 44 00 00       	nopl   0x0(%rax,%rax,1)
    92e0:	83 c8 02             	or     $0x2,%eax
    92e3:	89 47 08             	mov    %eax,0x8(%rdi)
    92e6:	31 c0                	xor    %eax,%eax
    92e8:	c3                   	retq   
    92e9:	0f 1f 80 00 00 00 00 	nopl   0x0(%rax)

00000000000092f0 <pthread_attr_getscope>:
    92f0:	8b 47 08             	mov    0x8(%rdi),%eax
    92f3:	c1 f8 02             	sar    $0x2,%eax
    92f6:	83 e0 01             	and    $0x1,%eax
    92f9:	89 06                	mov    %eax,(%rsi)
    92fb:	31 c0                	xor    %eax,%eax
    92fd:	c3                   	retq   
    92fe:	66 90                	xchg   %ax,%ax

0000000000009300 <pthread_attr_setscope>:
    9300:	85 f6                	test   %esi,%esi
    9302:	74 14                	je     9318 <pthread_attr_setscope+0x18>
    9304:	83 fe 01             	cmp    $0x1,%esi
    9307:	ba 16 00 00 00       	mov    $0x16,%edx
    930c:	b8 5f 00 00 00       	mov    $0x5f,%eax
    9311:	0f 45 c2             	cmovne %edx,%eax
    9314:	c3                   	retq   
    9315:	0f 1f 00             	nopl   (%rax)
    9318:	83 67 08 fb          	andl   $0xfffffffb,0x8(%rdi)
    931c:	31 c0                	xor    %eax,%eax
    931e:	c3                   	retq   
    931f:	90                   	nop

0000000000009320 <pthread_attr_getstackaddr>:
    9320:	48 8b 47 18          	mov    0x18(%rdi),%rax
    9324:	48 89 06             	mov    %rax,(%rsi)
    9327:	31 c0                	xor    %eax,%eax
    9329:	c3                   	retq   
    932a:	66 0f 1f 44 00 00    	nopw   0x0(%rax,%rax,1)

0000000000009330 <pthread_attr_setstackaddr>:
    9330:	48 89 77 18          	mov    %rsi,0x18(%rdi)
    9334:	83 4f 08 08          	orl    $0x8,0x8(%rdi)
    9338:	31 c0                	xor    %eax,%eax
    933a:	c3                   	retq   
    933b:	0f 1f 44 00 00       	nopl   0x0(%rax,%rax,1)

0000000000009340 <pthread_attr_getstacksize>:
    9340:	48 8b 57 20          	mov    0x20(%rdi),%rdx
    9344:	49 89 f0             	mov    %rsi,%r8
    9347:	48 85 d2             	test   %rdx,%rdx
    934a:	75 55                	jne    93a1 <pthread_attr_getstacksize+0x61>
    934c:	be 01 00 00 00       	mov    $0x1,%esi
    9351:	31 c0                	xor    %eax,%eax
    9353:	f0 0f b1 35 c5 4f 21 	lock cmpxchg %esi,0x214fc5(%rip)        # 21e320 <__default_pthread_attr_lock>
    935a:	00 
    935b:	74 1a                	je     9377 <pthread_attr_getstacksize+0x37>
    935d:	48 8d 3d bc 4f 21 00 	lea    0x214fbc(%rip),%rdi        # 21e320 <__default_pthread_attr_lock>
    9364:	48 81 ec 80 00 00 00 	sub    $0x80,%rsp
    936b:	e8 60 7d 00 00       	callq  110d0 <__lll_lock_wait_private>
    9370:	48 81 c4 80 00 00 00 	add    $0x80,%rsp
    9377:	48 8b 15 c2 50 21 00 	mov    0x2150c2(%rip),%rdx        # 21e440 <__default_pthread_attr+0x20>
    937e:	f0 ff 0d 9b 4f 21 00 	lock decl 0x214f9b(%rip)        # 21e320 <__default_pthread_attr_lock>
    9385:	74 1a                	je     93a1 <pthread_attr_getstacksize+0x61>
    9387:	48 8d 3d 92 4f 21 00 	lea    0x214f92(%rip),%rdi        # 21e320 <__default_pthread_attr_lock>
    938e:	48 81 ec 80 00 00 00 	sub    $0x80,%rsp
    9395:	e8 e6 7d 00 00       	callq  11180 <__lll_unlock_wake_private>
    939a:	48 81 c4 80 00 00 00 	add    $0x80,%rsp
    93a1:	49 89 10             	mov    %rdx,(%r8)
    93a4:	31 c0                	xor    %eax,%eax
    93a6:	c3                   	retq   
    93a7:	66 0f 1f 84 00 00 00 	nopw   0x0(%rax,%rax,1)
    93ae:	00 00 

00000000000093b0 <pthread_attr_setstacksize>:
    93b0:	48 81 fe ff 3f 00 00 	cmp    $0x3fff,%rsi
    93b7:	b8 16 00 00 00       	mov    $0x16,%eax
    93bc:	76 06                	jbe    93c4 <pthread_attr_setstacksize+0x14>
    93be:	48 89 77 20          	mov    %rsi,0x20(%rdi)
    93c2:	31 c0                	xor    %eax,%eax
    93c4:	f3 c3                	repz retq 
    93c6:	66 2e 0f 1f 84 00 00 	nopw   %cs:0x0(%rax,%rax,1)
    93cd:	00 00 00 

00000000000093d0 <pthread_attr_getstack>:
    93d0:	48 8b 4f 20          	mov    0x20(%rdi),%rcx
    93d4:	48 8b 47 18          	mov    0x18(%rdi),%rax
    93d8:	48 29 c8             	sub    %rcx,%rax
    93db:	48 89 06             	mov    %rax,(%rsi)
    93de:	48 89 0a             	mov    %rcx,(%rdx)
    93e1:	31 c0                	xor    %eax,%eax
    93e3:	c3                   	retq   
    93e4:	66 2e 0f 1f 84 00 00 	nopw   %cs:0x0(%rax,%rax,1)
    93eb:	00 00 00 
    93ee:	66 90                	xchg   %ax,%ax

00000000000093f0 <pthread_attr_setstack>:
    93f0:	48 81 fa ff 3f 00 00 	cmp    $0x3fff,%rdx
    93f7:	b8 16 00 00 00       	mov    $0x16,%eax
    93fc:	76 11                	jbe    940f <pthread_attr_setstack+0x1f>
    93fe:	83 4f 08 08          	orl    $0x8,0x8(%rdi)
    9402:	48 89 57 20          	mov    %rdx,0x20(%rdi)
    9406:	48 01 f2             	add    %rsi,%rdx
    9409:	48 89 57 18          	mov    %rdx,0x18(%rdi)
    940d:	31 c0                	xor    %eax,%eax
    940f:	f3 c3                	repz retq 
    9411:	66 2e 0f 1f 84 00 00 	nopw   %cs:0x0(%rax,%rax,1)
    9418:	00 00 00 
    941b:	0f 1f 44 00 00       	nopl   0x0(%rax,%rax,1)

0000000000009420 <pthread_getattr_np>:
    9420:	41 57                	push   %r15
    9422:	41 56                	push   %r14
    9424:	49 89 ff             	mov    %rdi,%r15
    9427:	41 55                	push   %r13
    9429:	41 54                	push   %r12
    942b:	55                   	push   %rbp
    942c:	53                   	push   %rbx
    942d:	48 89 f3             	mov    %rsi,%rbx
    9430:	be 01 00 00 00       	mov    $0x1,%esi
    9435:	48 83 ec 78          	sub    $0x78,%rsp
    9439:	64 48 8b 04 25 28 00 	mov    %fs:0x28,%rax
    9440:	00 00 
    9442:	48 89 44 24 68       	mov    %rax,0x68(%rsp)
    9447:	31 c0                	xor    %eax,%eax
    9449:	f0 41 0f b1 b7 18 06 	lock cmpxchg %esi,0x618(%r15)
    9450:	00 00 
    9452:	74 1a                	je     946e <pthread_getattr_np+0x4e>
    9454:	49 8d bf 18 06 00 00 	lea    0x618(%r15),%rdi
    945b:	48 81 ec 80 00 00 00 	sub    $0x80,%rsp
    9462:	e8 69 7c 00 00       	callq  110d0 <__lll_lock_wait_private>
    9467:	48 81 c4 80 00 00 00 	add    $0x80,%rsp
    946e:	41 8b 87 38 06 00 00 	mov    0x638(%r15),%eax
    9475:	89 03                	mov    %eax,(%rbx)
    9477:	41 8b 87 3c 06 00 00 	mov    0x63c(%r15),%eax
    947e:	4d 39 bf 28 06 00 00 	cmp    %r15,0x628(%r15)
    9485:	89 43 04             	mov    %eax,0x4(%rbx)
    9488:	41 8b 87 0c 03 00 00 	mov    0x30c(%r15),%eax
    948f:	89 43 08             	mov    %eax,0x8(%rbx)
    9492:	0f 84 e0 00 00 00    	je     9578 <pthread_getattr_np+0x158>
    9498:	49 8b 97 a8 06 00 00 	mov    0x6a8(%r15),%rdx
    949f:	48 89 53 10          	mov    %rdx,0x10(%rbx)
    94a3:	49 8b 97 90 06 00 00 	mov    0x690(%r15),%rdx
    94aa:	48 85 d2             	test   %rdx,%rdx
    94ad:	0f 84 ed 00 00 00    	je     95a0 <pthread_getattr_np+0x180>
    94b3:	49 8b 8f 98 06 00 00 	mov    0x698(%r15),%rcx
    94ba:	83 c8 08             	or     $0x8,%eax
    94bd:	48 89 ce             	mov    %rcx,%rsi
    94c0:	49 2b b7 a0 06 00 00 	sub    0x6a0(%r15),%rsi
    94c7:	48 01 ca             	add    %rcx,%rdx
    94ca:	48 89 53 18          	mov    %rdx,0x18(%rbx)
    94ce:	89 43 08             	mov    %eax,0x8(%rbx)
    94d1:	48 89 73 20          	mov    %rsi,0x20(%rbx)
    94d5:	45 31 ed             	xor    %r13d,%r13d
    94d8:	bd 10 00 00 00       	mov    $0x10,%ebp
    94dd:	eb 28                	jmp    9507 <pthread_getattr_np+0xe7>
    94df:	90                   	nop
    94e0:	48 89 c2             	mov    %rax,%rdx
    94e3:	48 89 ee             	mov    %rbp,%rsi
    94e6:	4c 89 ff             	mov    %r15,%rdi
    94e9:	e8 42 96 00 00       	callq  12b30 <pthread_getaffinity_np@@GLIBC_2.3.4>
    94ee:	83 f8 16             	cmp    $0x16,%eax
    94f1:	4d 89 e5             	mov    %r12,%r13
    94f4:	0f 85 8e 00 00 00    	jne    9588 <pthread_getattr_np+0x168>
    94fa:	48 81 fd ff ff 0f 00 	cmp    $0xfffff,%rbp
    9501:	0f 87 81 00 00 00    	ja     9588 <pthread_getattr_np+0x168>
    9507:	48 01 ed             	add    %rbp,%rbp
    950a:	4c 89 ef             	mov    %r13,%rdi
    950d:	48 89 ee             	mov    %rbp,%rsi
    9510:	e8 1b c5 ff ff       	callq  5a30 <realloc@plt>
    9515:	48 85 c0             	test   %rax,%rax
    9518:	49 89 c4             	mov    %rax,%r12
    951b:	75 c3                	jne    94e0 <pthread_getattr_np+0xc0>
    951d:	4c 89 ef             	mov    %r13,%rdi
    9520:	41 be 0c 00 00 00    	mov    $0xc,%r14d
    9526:	e8 95 c1 ff ff       	callq  56c0 <free@plt>
    952b:	f0 41 ff 8f 18 06 00 	lock decl 0x618(%r15)
    9532:	00 
    9533:	74 1a                	je     954f <pthread_getattr_np+0x12f>
    9535:	49 8d bf 18 06 00 00 	lea    0x618(%r15),%rdi
    953c:	48 81 ec 80 00 00 00 	sub    $0x80,%rsp
    9543:	e8 38 7c 00 00       	callq  11180 <__lll_unlock_wake_private>
    9548:	48 81 c4 80 00 00 00 	add    $0x80,%rsp
    954f:	48 8b 4c 24 68       	mov    0x68(%rsp),%rcx
    9554:	64 48 33 0c 25 28 00 	xor    %fs:0x28,%rcx
    955b:	00 00 
    955d:	44 89 f0             	mov    %r14d,%eax
    9560:	0f 85 e9 01 00 00    	jne    974f <pthread_getattr_np+0x32f>
    9566:	48 83 c4 78          	add    $0x78,%rsp
    956a:	5b                   	pop    %rbx
    956b:	5d                   	pop    %rbp
    956c:	41 5c                	pop    %r12
    956e:	41 5d                	pop    %r13
    9570:	41 5e                	pop    %r14
    9572:	41 5f                	pop    %r15
    9574:	c3                   	retq   
    9575:	0f 1f 00             	nopl   (%rax)
    9578:	83 c8 01             	or     $0x1,%eax
    957b:	89 43 08             	mov    %eax,0x8(%rbx)
    957e:	e9 15 ff ff ff       	jmpq   9498 <pthread_getattr_np+0x78>
    9583:	0f 1f 44 00 00       	nopl   0x0(%rax,%rax,1)
    9588:	85 c0                	test   %eax,%eax
    958a:	41 89 c6             	mov    %eax,%r14d
    958d:	0f 85 c1 01 00 00    	jne    9754 <pthread_getattr_np+0x334>
    9593:	4c 89 63 28          	mov    %r12,0x28(%rbx)
    9597:	48 89 6b 30          	mov    %rbp,0x30(%rbx)
    959b:	eb 8e                	jmp    952b <pthread_getattr_np+0x10b>
    959d:	0f 1f 00             	nopl   (%rax)
    95a0:	48 8d 35 75 b0 00 00 	lea    0xb075(%rip),%rsi        # 1461c <_thread_db_pthread_list+0xc>
    95a7:	48 8d 3d 72 b0 00 00 	lea    0xb072(%rip),%rdi        # 14620 <_thread_db_pthread_list+0x10>
    95ae:	e8 dd c4 ff ff       	callq  5a90 <fopen@plt>
    95b3:	48 85 c0             	test   %rax,%rax
    95b6:	48 89 c5             	mov    %rax,%rbp
    95b9:	0f 84 39 01 00 00    	je     96f8 <pthread_getattr_np+0x2d8>
    95bf:	48 8d 74 24 50       	lea    0x50(%rsp),%rsi
    95c4:	bf 03 00 00 00       	mov    $0x3,%edi
    95c9:	e8 72 c5 ff ff       	callq  5b40 <getrlimit@plt>
    95ce:	85 c0                	test   %eax,%eax
    95d0:	0f 85 f6 00 00 00    	jne    96cc <pthread_getattr_np+0x2ac>
    95d6:	48 8b 05 db 09 21 00 	mov    0x2109db(%rip),%rax        # 219fb8 <_rtld_global_ro@GLIBC_PRIVATE>
    95dd:	44 8b 4d 00          	mov    0x0(%rbp),%r9d
    95e1:	48 8d 4c 24 40       	lea    0x40(%rsp),%rcx
    95e6:	4c 89 7c 24 10       	mov    %r15,0x10(%rsp)
    95eb:	48 89 5c 24 18       	mov    %rbx,0x18(%rsp)
    95f0:	4c 8d 6c 24 38       	lea    0x38(%rsp),%r13
    95f5:	48 c7 44 24 08 00 00 	movq   $0x0,0x8(%rsp)
    95fc:	00 00 
    95fe:	4c 8d 64 24 30       	lea    0x30(%rsp),%r12
    9603:	49 89 cf             	mov    %rcx,%r15
    9606:	48 8b 40 18          	mov    0x18(%rax),%rax
    960a:	41 81 c9 00 80 00 00 	or     $0x8000,%r9d
    9611:	45 89 ce             	mov    %r9d,%r14d
    9614:	48 89 44 24 20       	mov    %rax,0x20(%rsp)
    9619:	48 8b 05 90 09 21 00 	mov    0x210990(%rip),%rax        # 219fb0 <__libc_stack_end@GLIBC_2.2.5>
    9620:	48 8b 00             	mov    (%rax),%rax
    9623:	44 89 4d 00          	mov    %r9d,0x0(%rbp)
    9627:	48 c7 44 24 30 00 00 	movq   $0x0,0x30(%rsp)
    962e:	00 00 
    9630:	48 c7 44 24 38 00 00 	movq   $0x0,0x38(%rsp)
    9637:	00 00 
    9639:	48 89 44 24 28       	mov    %rax,0x28(%rsp)
    963e:	48 8d 44 24 48       	lea    0x48(%rsp),%rax
    9643:	48 89 c3             	mov    %rax,%rbx
    9646:	eb 62                	jmp    96aa <pthread_getattr_np+0x28a>
    9648:	0f 1f 84 00 00 00 00 	nopl   0x0(%rax,%rax,1)
    964f:	00 
    9650:	48 89 e9             	mov    %rbp,%rcx
    9653:	ba 0a 00 00 00       	mov    $0xa,%edx
    9658:	4c 89 ee             	mov    %r13,%rsi
    965b:	4c 89 e7             	mov    %r12,%rdi
    965e:	e8 8d c2 ff ff       	callq  58f0 <__getdelim@plt>
    9663:	48 85 c0             	test   %rax,%rax
    9666:	7e 48                	jle    96b0 <pthread_getattr_np+0x290>
    9668:	48 8b 7c 24 30       	mov    0x30(%rsp),%rdi
    966d:	48 8d 35 bc af 00 00 	lea    0xafbc(%rip),%rsi        # 14630 <_thread_db_pthread_list+0x20>
    9674:	31 c0                	xor    %eax,%eax
    9676:	48 89 d9             	mov    %rbx,%rcx
    9679:	4c 89 fa             	mov    %r15,%rdx
    967c:	e8 9f c3 ff ff       	callq  5a20 <sscanf@plt>
    9681:	83 f8 02             	cmp    $0x2,%eax
    9684:	75 20                	jne    96a6 <pthread_getattr_np+0x286>
    9686:	48 8b 05 23 09 21 00 	mov    0x210923(%rip),%rax        # 219fb0 <__libc_stack_end@GLIBC_2.2.5>
    968d:	48 8b 10             	mov    (%rax),%rdx
    9690:	48 39 54 24 40       	cmp    %rdx,0x40(%rsp)
    9695:	48 8b 44 24 48       	mov    0x48(%rsp),%rax
    969a:	77 05                	ja     96a1 <pthread_getattr_np+0x281>
    969c:	48 39 c2             	cmp    %rax,%rdx
    969f:	72 64                	jb     9705 <pthread_getattr_np+0x2e5>
    96a1:	48 89 44 24 08       	mov    %rax,0x8(%rsp)
    96a6:	44 8b 75 00          	mov    0x0(%rbp),%r14d
    96aa:	41 83 e6 10          	and    $0x10,%r14d
    96ae:	74 a0                	je     9650 <pthread_getattr_np+0x230>
    96b0:	4c 8b 7c 24 10       	mov    0x10(%rsp),%r15
    96b5:	48 8b 5c 24 18       	mov    0x18(%rsp),%rbx
    96ba:	41 be 02 00 00 00    	mov    $0x2,%r14d
    96c0:	48 8b 7c 24 30       	mov    0x30(%rsp),%rdi
    96c5:	e8 f6 bf ff ff       	callq  56c0 <free@plt>
    96ca:	eb 0b                	jmp    96d7 <pthread_getattr_np+0x2b7>
    96cc:	48 8b 05 cd 08 21 00 	mov    0x2108cd(%rip),%rax        # 219fa0 <errno@GLIBC_PRIVATE>
    96d3:	64 44 8b 30          	mov    %fs:(%rax),%r14d
    96d7:	48 89 ef             	mov    %rbp,%rdi
    96da:	e8 c1 c0 ff ff       	callq  57a0 <fclose@plt>
    96df:	83 4b 08 08          	orl    $0x8,0x8(%rbx)
    96e3:	45 85 f6             	test   %r14d,%r14d
    96e6:	0f 85 3f fe ff ff    	jne    952b <pthread_getattr_np+0x10b>
    96ec:	e9 e4 fd ff ff       	jmpq   94d5 <pthread_getattr_np+0xb5>
    96f1:	0f 1f 80 00 00 00 00 	nopl   0x0(%rax)
    96f8:	48 8b 05 a1 08 21 00 	mov    0x2108a1(%rip),%rax        # 219fa0 <errno@GLIBC_PRIVATE>
    96ff:	64 44 8b 30          	mov    %fs:(%rax),%r14d
    9703:	eb da                	jmp    96df <pthread_getattr_np+0x2bf>
    9705:	48 8b 4c 24 20       	mov    0x20(%rsp),%rcx
    970a:	48 8b 54 24 28       	mov    0x28(%rsp),%rdx
    970f:	48 8b 5c 24 18       	mov    0x18(%rsp),%rbx
    9714:	4c 8b 7c 24 10       	mov    0x10(%rsp),%r15
    9719:	48 89 ce             	mov    %rcx,%rsi
    971c:	48 f7 de             	neg    %rsi
    971f:	48 21 f2             	and    %rsi,%rdx
    9722:	48 01 ca             	add    %rcx,%rdx
    9725:	48 8b 4c 24 50       	mov    0x50(%rsp),%rcx
    972a:	48 89 53 18          	mov    %rdx,0x18(%rbx)
    972e:	48 01 d1             	add    %rdx,%rcx
    9731:	48 2b 54 24 08       	sub    0x8(%rsp),%rdx
    9736:	48 29 c1             	sub    %rax,%rcx
    9739:	48 89 c8             	mov    %rcx,%rax
    973c:	48 21 f0             	and    %rsi,%rax
    973f:	48 39 d0             	cmp    %rdx,%rax
    9742:	48 0f 46 d0          	cmovbe %rax,%rdx
    9746:	48 89 53 20          	mov    %rdx,0x20(%rbx)
    974a:	e9 71 ff ff ff       	jmpq   96c0 <pthread_getattr_np+0x2a0>
    974f:	e8 7c c0 ff ff       	callq  57d0 <__stack_chk_fail@plt>
    9754:	4c 89 e7             	mov    %r12,%rdi
    9757:	e8 64 bf ff ff       	callq  56c0 <free@plt>
    975c:	41 83 fe 26          	cmp    $0x26,%r14d
    9760:	0f 85 c5 fd ff ff    	jne    952b <pthread_getattr_np+0x10b>
    9766:	48 c7 43 28 00 00 00 	movq   $0x0,0x28(%rbx)
    976d:	00 
    976e:	48 c7 43 30 00 00 00 	movq   $0x0,0x30(%rbx)
    9775:	00 
    9776:	45 31 f6             	xor    %r14d,%r14d
    9779:	e9 ad fd ff ff       	jmpq   952b <pthread_getattr_np+0x10b>
    977e:	66 90                	xchg   %ax,%ax

0000000000009780 <__pthread_mutex_init>:
    9780:	41 54                	push   %r12
    9782:	55                   	push   %rbp
    9783:	53                   	push   %rbx
    9784:	48 89 fb             	mov    %rdi,%rbx
    9787:	48 83 ec 10          	sub    $0x10,%rsp
    978b:	64 48 8b 04 25 28 00 	mov    %fs:0x28,%rax
    9792:	00 00 
    9794:	48 89 44 24 08       	mov    %rax,0x8(%rsp)
    9799:	31 c0                	xor    %eax,%eax
    979b:	48 85 f6             	test   %rsi,%rsi
    979e:	0f 84 d4 00 00 00    	je     9878 <__pthread_mutex_init+0xf8>
    97a4:	8b 06                	mov    (%rsi),%eax
    97a6:	48 89 f5             	mov    %rsi,%rbp
    97a9:	89 c2                	mov    %eax,%edx
    97ab:	81 e2 00 00 00 30    	and    $0x30000000,%edx
    97b1:	74 18                	je     97cb <__pthread_mutex_init+0x4b>
    97b3:	81 fa 00 00 00 10    	cmp    $0x10000000,%edx
    97b9:	75 75                	jne    9830 <__pthread_mutex_init+0xb0>
    97bb:	8b 05 ab 4b 21 00    	mov    0x214bab(%rip),%eax        # 21e36c <tpi_supported.7550>
    97c1:	85 c0                	test   %eax,%eax
    97c3:	0f 84 ef 00 00 00    	je     98b8 <__pthread_mutex_init+0x138>
    97c9:	78 6c                	js     9837 <__pthread_mutex_init+0xb7>
    97cb:	66 0f ef c0          	pxor   %xmm0,%xmm0
    97cf:	48 c7 43 20 00 00 00 	movq   $0x0,0x20(%rbx)
    97d6:	00 
    97d7:	0f 11 03             	movups %xmm0,(%rbx)
    97da:	0f 11 43 10          	movups %xmm0,0x10(%rbx)
    97de:	8b 55 00             	mov    0x0(%rbp),%edx
    97e1:	89 d0                	mov    %edx,%eax
    97e3:	25 ff 0f 00 0f       	and    $0xf000fff,%eax
    97e8:	f7 c2 00 00 00 40    	test   $0x40000000,%edx
    97ee:	74 03                	je     97f3 <__pthread_mutex_init+0x73>
    97f0:	83 c8 10             	or     $0x10,%eax
    97f3:	89 d1                	mov    %edx,%ecx
    97f5:	89 43 10             	mov    %eax,0x10(%rbx)
    97f8:	81 e1 00 00 00 30    	and    $0x30000000,%ecx
    97fe:	81 f9 00 00 00 10    	cmp    $0x10000000,%ecx
    9804:	74 3a                	je     9840 <__pthread_mutex_init+0xc0>
    9806:	81 f9 00 00 00 20    	cmp    $0x20000000,%ecx
    980c:	75 38                	jne    9846 <__pthread_mutex_init+0xc6>
    980e:	41 89 d4             	mov    %edx,%r12d
    9811:	83 c8 40             	or     $0x40,%eax
    9814:	41 c1 fc 0c          	sar    $0xc,%r12d
    9818:	89 43 10             	mov    %eax,0x10(%rbx)
    981b:	41 81 e4 ff 0f 00 00 	and    $0xfff,%r12d
    9822:	74 6c                	je     9890 <__pthread_mutex_init+0x110>
    9824:	41 c1 e4 13          	shl    $0x13,%r12d
    9828:	44 89 23             	mov    %r12d,(%rbx)
    982b:	eb 19                	jmp    9846 <__pthread_mutex_init+0xc6>
    982d:	0f 1f 00             	nopl   (%rax)
    9830:	a9 00 00 00 40       	test   $0x40000000,%eax
    9835:	74 94                	je     97cb <__pthread_mutex_init+0x4b>
    9837:	b8 5f 00 00 00       	mov    $0x5f,%eax
    983c:	eb 1a                	jmp    9858 <__pthread_mutex_init+0xd8>
    983e:	66 90                	xchg   %ax,%ax
    9840:	83 c8 20             	or     $0x20,%eax
    9843:	89 43 10             	mov    %eax,0x10(%rbx)
    9846:	81 e2 00 00 00 c0    	and    $0xc0000000,%edx
    984c:	74 07                	je     9855 <__pthread_mutex_init+0xd5>
    984e:	81 4b 10 80 00 00 00 	orl    $0x80,0x10(%rbx)
    9855:	90                   	nop
    9856:	31 c0                	xor    %eax,%eax
    9858:	48 8b 74 24 08       	mov    0x8(%rsp),%rsi
    985d:	64 48 33 34 25 28 00 	xor    %fs:0x28,%rsi
    9864:	00 00 
    9866:	0f 85 ab 00 00 00    	jne    9917 <__pthread_mutex_init+0x197>
    986c:	48 83 c4 10          	add    $0x10,%rsp
    9870:	5b                   	pop    %rbx
    9871:	5d                   	pop    %rbp
    9872:	41 5c                	pop    %r12
    9874:	c3                   	retq   
    9875:	0f 1f 00             	nopl   (%rax)
    9878:	66 0f ef c0          	pxor   %xmm0,%xmm0
    987c:	48 c7 47 20 00 00 00 	movq   $0x0,0x20(%rdi)
    9883:	00 
    9884:	0f 11 07             	movups %xmm0,(%rdi)
    9887:	0f 11 47 10          	movups %xmm0,0x10(%rdi)
    988b:	eb c8                	jmp    9855 <__pthread_mutex_init+0xd5>
    988d:	0f 1f 00             	nopl   (%rax)
    9890:	8b 05 3e 0a 21 00    	mov    0x210a3e(%rip),%eax        # 21a2d4 <__sched_fifo_min_prio>
    9896:	83 f8 ff             	cmp    $0xffffffff,%eax
    9899:	74 5d                	je     98f8 <__pthread_mutex_init+0x178>
    989b:	8b 05 33 0a 21 00    	mov    0x210a33(%rip),%eax        # 21a2d4 <__sched_fifo_min_prio>
    98a1:	85 c0                	test   %eax,%eax
    98a3:	7e 83                	jle    9828 <__pthread_mutex_init+0xa8>
    98a5:	44 8b 25 28 0a 21 00 	mov    0x210a28(%rip),%r12d        # 21a2d4 <__sched_fifo_min_prio>
    98ac:	e9 73 ff ff ff       	jmpq   9824 <__pthread_mutex_init+0xa4>
    98b1:	0f 1f 80 00 00 00 00 	nopl   0x0(%rax)
    98b8:	c7 44 24 04 00 00 00 	movl   $0x0,0x4(%rsp)
    98bf:	00 
    98c0:	48 8d 7c 24 04       	lea    0x4(%rsp),%rdi
    98c5:	45 31 d2             	xor    %r10d,%r10d
    98c8:	31 d2                	xor    %edx,%edx
    98ca:	be 07 00 00 00       	mov    $0x7,%esi
    98cf:	b8 ca 00 00 00       	mov    $0xca,%eax
    98d4:	0f 05                	syscall 
    98d6:	3d 00 f0 ff ff       	cmp    $0xfffff000,%eax
    98db:	76 3f                	jbe    991c <__pthread_mutex_init+0x19c>
    98dd:	83 f8 da             	cmp    $0xffffffda,%eax
    98e0:	74 26                	je     9908 <__pthread_mutex_init+0x188>
    98e2:	c7 05 80 4a 21 00 01 	movl   $0x1,0x214a80(%rip)        # 21e36c <tpi_supported.7550>
    98e9:	00 00 00 
    98ec:	e9 da fe ff ff       	jmpq   97cb <__pthread_mutex_init+0x4b>
    98f1:	0f 1f 80 00 00 00 00 	nopl   0x0(%rax)
    98f8:	e8 93 98 00 00       	callq  13190 <__init_sched_fifo_prio>
    98fd:	8b 55 00             	mov    0x0(%rbp),%edx
    9900:	eb 99                	jmp    989b <__pthread_mutex_init+0x11b>
    9902:	66 0f 1f 44 00 00    	nopw   0x0(%rax,%rax,1)
    9908:	c7 05 5a 4a 21 00 ff 	movl   $0xffffffff,0x214a5a(%rip)        # 21e36c <tpi_supported.7550>
    990f:	ff ff ff 
    9912:	e9 20 ff ff ff       	jmpq   9837 <__pthread_mutex_init+0xb7>
    9917:	e8 b4 be ff ff       	callq  57d0 <__stack_chk_fail@plt>
    991c:	48 8d 0d 5d ad 00 00 	lea    0xad5d(%rip),%rcx        # 14680 <__PRETTY_FUNCTION__.7563>
    9923:	48 8d 35 0e ad 00 00 	lea    0xad0e(%rip),%rsi        # 14638 <_thread_db_pthread_list+0x28>
    992a:	48 8d 3d 1f ad 00 00 	lea    0xad1f(%rip),%rdi        # 14650 <_thread_db_pthread_list+0x40>
    9931:	ba 2f 00 00 00       	mov    $0x2f,%edx
    9936:	e8 05 bf ff ff       	callq  5840 <__assert_fail@plt>
    993b:	0f 1f 44 00 00       	nopl   0x0(%rax,%rax,1)

0000000000009940 <__pthread_mutex_destroy>:
    9940:	90                   	nop
    9941:	f6 47 10 10          	testb  $0x10,0x10(%rdi)
    9945:	75 0c                	jne    9953 <__pthread_mutex_destroy+0x13>
    9947:	8b 57 0c             	mov    0xc(%rdi),%edx
    994a:	b8 10 00 00 00       	mov    $0x10,%eax
    994f:	85 d2                	test   %edx,%edx
    9951:	75 09                	jne    995c <__pthread_mutex_destroy+0x1c>
    9953:	c7 47 10 ff ff ff ff 	movl   $0xffffffff,0x10(%rdi)
    995a:	31 c0                	xor    %eax,%eax
    995c:	f3 c3                	repz retq 
    995e:	66 90                	xchg   %ax,%ax

0000000000009960 <__pthread_mutex_lock_full>:
    9960:	41 56                	push   %r14
    9962:	41 55                	push   %r13
    9964:	41 54                	push   %r12
    9966:	55                   	push   %rbp
    9967:	53                   	push   %rbx
    9968:	64 44 8b 2c 25 d0 02 	mov    %fs:0x2d0,%r13d
    996f:	00 00 
    9971:	8b 47 10             	mov    0x10(%rdi),%eax
    9974:	89 c1                	mov    %eax,%ecx
    9976:	83 e1 7f             	and    $0x7f,%ecx
    9979:	83 e9 10             	sub    $0x10,%ecx
    997c:	83 f9 33             	cmp    $0x33,%ecx
    997f:	0f 87 b9 01 00 00    	ja     9b3e <__pthread_mutex_lock_full+0x1de>
    9985:	ba 01 00 00 00       	mov    $0x1,%edx
    998a:	48 89 fb             	mov    %rdi,%rbx
    998d:	48 d3 e2             	shl    %cl,%rdx
    9990:	48 b9 00 00 0f 00 0f 	movabs $0xf000f0000,%rcx
    9997:	00 00 00 
    999a:	48 85 ca             	test   %rcx,%rdx
    999d:	0f 84 a4 00 00 00    	je     9a47 <__pthread_mutex_lock_full+0xe7>
    99a3:	41 89 c1             	mov    %eax,%r9d
    99a6:	41 83 e1 03          	and    $0x3,%r9d
    99aa:	83 e0 10             	and    $0x10,%eax
    99ad:	41 89 c0             	mov    %eax,%r8d
    99b0:	74 11                	je     99c3 <__pthread_mutex_lock_full+0x63>
    99b2:	48 8d 47 20          	lea    0x20(%rdi),%rax
    99b6:	48 83 c8 01          	or     $0x1,%rax
    99ba:	64 48 89 04 25 f0 02 	mov    %rax,%fs:0x2f0
    99c1:	00 00 
    99c3:	8b 03                	mov    (%rbx),%eax
    99c5:	25 ff ff ff 3f       	and    $0x3fffffff,%eax
    99ca:	41 39 c5             	cmp    %eax,%r13d
    99cd:	0f 84 7d 03 00 00    	je     9d50 <__pthread_mutex_lock_full+0x3f0>
    99d3:	31 c0                	xor    %eax,%eax
    99d5:	f0 44 0f b1 2b       	lock cmpxchg %r13d,(%rbx)
    99da:	85 c0                	test   %eax,%eax
    99dc:	0f 84 6a 01 00 00    	je     9b4c <__pthread_mutex_lock_full+0x1ec>
    99e2:	45 85 c0             	test   %r8d,%r8d
    99e5:	be 06 00 00 00       	mov    $0x6,%esi
    99ea:	75 0d                	jne    99f9 <__pthread_mutex_lock_full+0x99>
    99ec:	8b 73 10             	mov    0x10(%rbx),%esi
    99ef:	81 e6 80 00 00 00    	and    $0x80,%esi
    99f5:	40 80 f6 86          	xor    $0x86,%sil
    99f9:	45 31 d2             	xor    %r10d,%r10d
    99fc:	ba 01 00 00 00       	mov    $0x1,%edx
    9a01:	48 89 df             	mov    %rbx,%rdi
    9a04:	b8 ca 00 00 00       	mov    $0xca,%eax
    9a09:	0f 05                	syscall 
    9a0b:	3d 00 f0 ff ff       	cmp    $0xfffff000,%eax
    9a10:	0f 86 3d 02 00 00    	jbe    9c53 <__pthread_mutex_lock_full+0x2f3>
    9a16:	89 c2                	mov    %eax,%edx
    9a18:	83 e2 df             	and    $0xffffffdf,%edx
    9a1b:	83 fa dd             	cmp    $0xffffffdd,%edx
    9a1e:	0f 85 2f 02 00 00    	jne    9c53 <__pthread_mutex_lock_full+0x2f3>
    9a24:	83 f8 dd             	cmp    $0xffffffdd,%eax
    9a27:	0f 84 0f 05 00 00    	je     9f3c <__pthread_mutex_lock_full+0x5dc>
    9a2d:	83 f8 fd             	cmp    $0xfffffffd,%eax
    9a30:	75 0e                	jne    9a40 <__pthread_mutex_lock_full+0xe0>
    9a32:	45 85 c0             	test   %r8d,%r8d
    9a35:	0f 85 e2 04 00 00    	jne    9f1d <__pthread_mutex_lock_full+0x5bd>
    9a3b:	0f 1f 44 00 00       	nopl   0x0(%rax,%rax,1)
    9a40:	e8 eb 84 00 00       	callq  11f30 <__pause_nocancel>
    9a45:	eb f9                	jmp    9a40 <__pthread_mutex_lock_full+0xe0>
    9a47:	f6 c2 0f             	test   $0xf,%dl
    9a4a:	0f 85 6a 01 00 00    	jne    9bba <__pthread_mutex_lock_full+0x25a>
    9a50:	48 b9 00 00 00 00 00 	movabs $0xf000000000000,%rcx
    9a57:	00 0f 00 
    9a5a:	48 85 ca             	test   %rcx,%rdx
    9a5d:	0f 84 db 00 00 00    	je     9b3e <__pthread_mutex_lock_full+0x1de>
    9a63:	44 3b 6f 08          	cmp    0x8(%rdi),%r13d
    9a67:	8b 0f                	mov    (%rdi),%ecx
    9a69:	bd ff ff ff ff       	mov    $0xffffffff,%ebp
    9a6e:	0f 84 b1 02 00 00    	je     9d25 <__pthread_mutex_lock_full+0x3c5>
    9a74:	41 be ca 00 00 00    	mov    $0xca,%r14d
    9a7a:	c1 e9 13             	shr    $0x13,%ecx
    9a7d:	41 89 cc             	mov    %ecx,%r12d
    9a80:	e8 3b 9b 00 00       	callq  135c0 <__pthread_current_priority>
    9a85:	44 39 e0             	cmp    %r12d,%eax
    9a88:	0f 8f a1 00 00 00    	jg     9b2f <__pthread_mutex_lock_full+0x1cf>
    9a8e:	44 89 e6             	mov    %r12d,%esi
    9a91:	89 ef                	mov    %ebp,%edi
    9a93:	e8 28 97 00 00       	callq  131c0 <__pthread_tpp_change_priority>
    9a98:	85 c0                	test   %eax,%eax
    9a9a:	0f 85 a3 00 00 00    	jne    9b43 <__pthread_mutex_lock_full+0x1e3>
    9aa0:	45 89 e0             	mov    %r12d,%r8d
    9aa3:	41 c1 e0 13          	shl    $0x13,%r8d
    9aa7:	44 89 c5             	mov    %r8d,%ebp
    9aaa:	44 89 c0             	mov    %r8d,%eax
    9aad:	83 cd 01             	or     $0x1,%ebp
    9ab0:	f0 0f b1 2b          	lock cmpxchg %ebp,(%rbx)
    9ab4:	41 39 c0             	cmp    %eax,%r8d
    9ab7:	74 50                	je     9b09 <__pthread_mutex_lock_full+0x1a9>
    9ab9:	45 89 c1             	mov    %r8d,%r9d
    9abc:	41 83 c9 02          	or     $0x2,%r9d
    9ac0:	89 e8                	mov    %ebp,%eax
    9ac2:	f0 44 0f b1 0b       	lock cmpxchg %r9d,(%rbx)
    9ac7:	89 c2                	mov    %eax,%edx
    9ac9:	89 c1                	mov    %eax,%ecx
    9acb:	81 e2 00 00 f8 ff    	and    $0xfff80000,%edx
    9ad1:	41 39 d0             	cmp    %edx,%r8d
    9ad4:	0f 85 cc 01 00 00    	jne    9ca6 <__pthread_mutex_lock_full+0x346>
    9ada:	41 39 c0             	cmp    %eax,%r8d
    9add:	0f 84 ad 01 00 00    	je     9c90 <__pthread_mutex_lock_full+0x330>
    9ae3:	8b 73 10             	mov    0x10(%rbx),%esi
    9ae6:	45 31 d2             	xor    %r10d,%r10d
    9ae9:	44 89 ca             	mov    %r9d,%edx
    9aec:	48 89 df             	mov    %rbx,%rdi
    9aef:	44 89 f0             	mov    %r14d,%eax
    9af2:	f7 d6                	not    %esi
    9af4:	81 e6 80 00 00 00    	and    $0x80,%esi
    9afa:	0f 05                	syscall 
    9afc:	44 89 c0             	mov    %r8d,%eax
    9aff:	f0 44 0f b1 0b       	lock cmpxchg %r9d,(%rbx)
    9b04:	41 39 c0             	cmp    %eax,%r8d
    9b07:	75 b7                	jne    9ac0 <__pthread_mutex_lock_full+0x160>
    9b09:	8b 43 08             	mov    0x8(%rbx),%eax
    9b0c:	85 c0                	test   %eax,%eax
    9b0e:	0f 85 b6 02 00 00    	jne    9dca <__pthread_mutex_lock_full+0x46a>
    9b14:	c7 43 04 01 00 00 00 	movl   $0x1,0x4(%rbx)
    9b1b:	44 89 6b 08          	mov    %r13d,0x8(%rbx)
    9b1f:	83 43 0c 01          	addl   $0x1,0xc(%rbx)
    9b23:	90                   	nop
    9b24:	31 c0                	xor    %eax,%eax
    9b26:	5b                   	pop    %rbx
    9b27:	5d                   	pop    %rbp
    9b28:	41 5c                	pop    %r12
    9b2a:	41 5d                	pop    %r13
    9b2c:	41 5e                	pop    %r14
    9b2e:	c3                   	retq   
    9b2f:	83 fd ff             	cmp    $0xffffffff,%ebp
    9b32:	74 0a                	je     9b3e <__pthread_mutex_lock_full+0x1de>
    9b34:	83 ce ff             	or     $0xffffffff,%esi
    9b37:	89 ef                	mov    %ebp,%edi
    9b39:	e8 82 96 00 00       	callq  131c0 <__pthread_tpp_change_priority>
    9b3e:	b8 16 00 00 00       	mov    $0x16,%eax
    9b43:	5b                   	pop    %rbx
    9b44:	5d                   	pop    %rbp
    9b45:	41 5c                	pop    %r12
    9b47:	41 5d                	pop    %r13
    9b49:	41 5e                	pop    %r14
    9b4b:	c3                   	retq   
    9b4c:	45 85 c0             	test   %r8d,%r8d
    9b4f:	74 c3                	je     9b14 <__pthread_mutex_lock_full+0x1b4>
    9b51:	81 7b 08 fe ff ff 7f 	cmpl   $0x7ffffffe,0x8(%rbx)
    9b58:	0f 84 0b 04 00 00    	je     9f69 <__pthread_mutex_lock_full+0x609>
    9b5e:	c7 43 04 01 00 00 00 	movl   $0x1,0x4(%rbx)
    9b65:	64 48 8b 14 25 e0 02 	mov    %fs:0x2e0,%rdx
    9b6c:	00 00 
    9b6e:	48 8d 43 20          	lea    0x20(%rbx),%rax
    9b72:	48 83 e2 fe          	and    $0xfffffffffffffffe,%rdx
    9b76:	48 89 42 f8          	mov    %rax,-0x8(%rdx)
    9b7a:	64 48 8b 14 25 e0 02 	mov    %fs:0x2e0,%rdx
    9b81:	00 00 
    9b83:	48 89 53 20          	mov    %rdx,0x20(%rbx)
    9b87:	64 48 8b 14 25 10 00 	mov    %fs:0x10,%rdx
    9b8e:	00 00 
    9b90:	48 81 c2 e0 02 00 00 	add    $0x2e0,%rdx
    9b97:	48 89 53 18          	mov    %rdx,0x18(%rbx)
    9b9b:	48 83 c8 01          	or     $0x1,%rax
    9b9f:	64 48 89 04 25 e0 02 	mov    %rax,%fs:0x2e0
    9ba6:	00 00 
    9ba8:	64 48 c7 04 25 f0 02 	movq   $0x0,%fs:0x2f0
    9baf:	00 00 00 00 00 00 
    9bb5:	e9 61 ff ff ff       	jmpq   9b1b <__pthread_mutex_lock_full+0x1bb>
    9bba:	4c 8d 47 20          	lea    0x20(%rdi),%r8
    9bbe:	64 4c 89 04 25 f0 02 	mov    %r8,%fs:0x2f0
    9bc5:	00 00 
    9bc7:	8b 17                	mov    (%rdi),%edx
    9bc9:	31 f6                	xor    %esi,%esi
    9bcb:	bd ca 00 00 00       	mov    $0xca,%ebp
    9bd0:	41 b9 00 00 00 80    	mov    $0x80000000,%r9d
    9bd6:	85 d2                	test   %edx,%edx
    9bd8:	0f 85 b2 01 00 00    	jne    9d90 <__pthread_mutex_lock_full+0x430>
    9bde:	44 89 e9             	mov    %r13d,%ecx
    9be1:	89 d0                	mov    %edx,%eax
    9be3:	09 f1                	or     %esi,%ecx
    9be5:	f0 0f b1 0b          	lock cmpxchg %ecx,(%rbx)
    9be9:	85 c0                	test   %eax,%eax
    9beb:	89 c2                	mov    %eax,%edx
    9bed:	0f 85 9d 01 00 00    	jne    9d90 <__pthread_mutex_lock_full+0x430>
    9bf3:	81 7b 08 fe ff ff 7f 	cmpl   $0x7ffffffe,0x8(%rbx)
    9bfa:	0f 84 e9 01 00 00    	je     9de9 <__pthread_mutex_lock_full+0x489>
    9c00:	c7 43 04 01 00 00 00 	movl   $0x1,0x4(%rbx)
    9c07:	64 48 8b 04 25 e0 02 	mov    %fs:0x2e0,%rax
    9c0e:	00 00 
    9c10:	48 83 e0 fe          	and    $0xfffffffffffffffe,%rax
    9c14:	4c 89 40 f8          	mov    %r8,-0x8(%rax)
    9c18:	64 48 8b 04 25 e0 02 	mov    %fs:0x2e0,%rax
    9c1f:	00 00 
    9c21:	48 89 43 20          	mov    %rax,0x20(%rbx)
    9c25:	64 48 8b 04 25 10 00 	mov    %fs:0x10,%rax
    9c2c:	00 00 
    9c2e:	48 05 e0 02 00 00    	add    $0x2e0,%rax
    9c34:	48 89 43 18          	mov    %rax,0x18(%rbx)
    9c38:	64 4c 89 04 25 e0 02 	mov    %r8,%fs:0x2e0
    9c3f:	00 00 
    9c41:	64 48 c7 04 25 f0 02 	movq   $0x0,%fs:0x2f0
    9c48:	00 00 00 00 00 00 
    9c4e:	e9 c8 fe ff ff       	jmpq   9b1b <__pthread_mutex_lock_full+0x1bb>
    9c53:	8b 03                	mov    (%rbx),%eax
    9c55:	25 00 00 00 40       	and    $0x40000000,%eax
    9c5a:	45 85 c0             	test   %r8d,%r8d
    9c5d:	75 4f                	jne    9cae <__pthread_mutex_lock_full+0x34e>
    9c5f:	85 c0                	test   %eax,%eax
    9c61:	0f 84 ad fe ff ff    	je     9b14 <__pthread_mutex_lock_full+0x1b4>
    9c67:	48 8d 0d 92 ab 00 00 	lea    0xab92(%rip),%rcx        # 14800 <__PRETTY_FUNCTION__.8909>
    9c6e:	48 8d 35 20 aa 00 00 	lea    0xaa20(%rip),%rsi        # 14695 <__PRETTY_FUNCTION__.7563+0x15>
    9c75:	48 8d 3d 0c ab 00 00 	lea    0xab0c(%rip),%rdi        # 14788 <__PRETTY_FUNCTION__.7563+0x108>
    9c7c:	ba b2 01 00 00       	mov    $0x1b2,%edx
    9c81:	e8 ba bb ff ff       	callq  5840 <__assert_fail@plt>
    9c86:	66 2e 0f 1f 84 00 00 	nopw   %cs:0x0(%rax,%rax,1)
    9c8d:	00 00 00 
    9c90:	44 89 c0             	mov    %r8d,%eax
    9c93:	f0 44 0f b1 0b       	lock cmpxchg %r9d,(%rbx)
    9c98:	41 39 c0             	cmp    %eax,%r8d
    9c9b:	0f 85 1f fe ff ff    	jne    9ac0 <__pthread_mutex_lock_full+0x160>
    9ca1:	e9 63 fe ff ff       	jmpq   9b09 <__pthread_mutex_lock_full+0x1a9>
    9ca6:	44 89 e5             	mov    %r12d,%ebp
    9ca9:	e9 cc fd ff ff       	jmpq   9a7a <__pthread_mutex_lock_full+0x11a>
    9cae:	85 c0                	test   %eax,%eax
    9cb0:	0f 84 9b fe ff ff    	je     9b51 <__pthread_mutex_lock_full+0x1f1>
    9cb6:	f0 81 23 ff ff ff bf 	lock andl $0xbfffffff,(%rbx)
    9cbd:	48 b8 01 00 00 00 ff 	movabs $0x7fffffff00000001,%rax
    9cc4:	ff ff 7f 
    9cc7:	48 89 43 04          	mov    %rax,0x4(%rbx)
    9ccb:	64 48 8b 14 25 e0 02 	mov    %fs:0x2e0,%rdx
    9cd2:	00 00 
    9cd4:	48 8d 43 20          	lea    0x20(%rbx),%rax
    9cd8:	48 83 e2 fe          	and    $0xfffffffffffffffe,%rdx
    9cdc:	48 89 42 f8          	mov    %rax,-0x8(%rdx)
    9ce0:	64 48 8b 14 25 e0 02 	mov    %fs:0x2e0,%rdx
    9ce7:	00 00 
    9ce9:	48 89 53 20          	mov    %rdx,0x20(%rbx)
    9ced:	64 48 8b 14 25 10 00 	mov    %fs:0x10,%rdx
    9cf4:	00 00 
    9cf6:	48 81 c2 e0 02 00 00 	add    $0x2e0,%rdx
    9cfd:	48 89 53 18          	mov    %rdx,0x18(%rbx)
    9d01:	48 83 c8 01          	or     $0x1,%rax
    9d05:	64 48 89 04 25 e0 02 	mov    %rax,%fs:0x2e0
    9d0c:	00 00 
    9d0e:	64 48 c7 04 25 f0 02 	movq   $0x0,%fs:0x2f0
    9d15:	00 00 00 00 00 00 
    9d1b:	b8 82 00 00 00       	mov    $0x82,%eax
    9d20:	e9 1e fe ff ff       	jmpq   9b43 <__pthread_mutex_lock_full+0x1e3>
    9d25:	83 e0 03             	and    $0x3,%eax
    9d28:	83 f8 02             	cmp    $0x2,%eax
    9d2b:	0f 84 e2 01 00 00    	je     9f13 <__pthread_mutex_lock_full+0x5b3>
    9d31:	83 f8 01             	cmp    $0x1,%eax
    9d34:	0f 85 3a fd ff ff    	jne    9a74 <__pthread_mutex_lock_full+0x114>
    9d3a:	8b 47 04             	mov    0x4(%rdi),%eax
    9d3d:	39 e8                	cmp    %ebp,%eax
    9d3f:	75 38                	jne    9d79 <__pthread_mutex_lock_full+0x419>
    9d41:	b8 0b 00 00 00       	mov    $0xb,%eax
    9d46:	e9 f8 fd ff ff       	jmpq   9b43 <__pthread_mutex_lock_full+0x1e3>
    9d4b:	0f 1f 44 00 00       	nopl   0x0(%rax,%rax,1)
    9d50:	41 83 f9 02          	cmp    $0x2,%r9d
    9d54:	0f 84 a2 01 00 00    	je     9efc <__pthread_mutex_lock_full+0x59c>
    9d5a:	41 83 f9 01          	cmp    $0x1,%r9d
    9d5e:	0f 85 6f fc ff ff    	jne    99d3 <__pthread_mutex_lock_full+0x73>
    9d64:	64 48 c7 04 25 f0 02 	movq   $0x0,%fs:0x2f0
    9d6b:	00 00 00 00 00 00 
    9d71:	8b 43 04             	mov    0x4(%rbx),%eax
    9d74:	83 f8 ff             	cmp    $0xffffffff,%eax
    9d77:	74 c8                	je     9d41 <__pthread_mutex_lock_full+0x3e1>
    9d79:	83 c0 01             	add    $0x1,%eax
    9d7c:	89 43 04             	mov    %eax,0x4(%rbx)
    9d7f:	31 c0                	xor    %eax,%eax
    9d81:	e9 bd fd ff ff       	jmpq   9b43 <__pthread_mutex_lock_full+0x1e3>
    9d86:	66 2e 0f 1f 84 00 00 	nopw   %cs:0x0(%rax,%rax,1)
    9d8d:	00 00 00 
    9d90:	89 d0                	mov    %edx,%eax
    9d92:	89 d1                	mov    %edx,%ecx
    9d94:	25 00 00 00 40       	and    $0x40000000,%eax
    9d99:	0f 85 e3 00 00 00    	jne    9e82 <__pthread_mutex_lock_full+0x522>
    9d9f:	81 e1 ff ff ff 3f    	and    $0x3fffffff,%ecx
    9da5:	41 39 cd             	cmp    %ecx,%r13d
    9da8:	0f 84 98 00 00 00    	je     9e46 <__pthread_mutex_lock_full+0x4e6>
    9dae:	85 d2                	test   %edx,%edx
    9db0:	79 75                	jns    9e27 <__pthread_mutex_lock_full+0x4c7>
    9db2:	45 31 d2             	xor    %r10d,%r10d
    9db5:	31 f6                	xor    %esi,%esi
    9db7:	48 89 df             	mov    %rbx,%rdi
    9dba:	89 e8                	mov    %ebp,%eax
    9dbc:	0f 05                	syscall 
    9dbe:	8b 03                	mov    (%rbx),%eax
    9dc0:	44 89 ce             	mov    %r9d,%esi
    9dc3:	89 c2                	mov    %eax,%edx
    9dc5:	e9 0c fe ff ff       	jmpq   9bd6 <__pthread_mutex_lock_full+0x276>
    9dca:	48 8d 0d 2f aa 00 00 	lea    0xaa2f(%rip),%rcx        # 14800 <__PRETTY_FUNCTION__.8909>
    9dd1:	48 8d 35 bd a8 00 00 	lea    0xa8bd(%rip),%rsi        # 14695 <__PRETTY_FUNCTION__.7563+0x15>
